(lp0
ccopy_reg
_reconstructor
p1
(cpymunk.space
Space
p2
c__builtin__
object
p3
Ntp4
Rp5
(dp6
S'init'
p7
(lp8
(S'threaded'
p9
I00
tp10
asS'custom'
p11
(lp12
(g9
I00
tp13
asS'special'
p14
(lp15
(S'shapes'
p16
(lp17
g1
(cpymunk.shapes
Poly
p18
g3
Ntp19
Rp20
(dp21
g7
(lp22
(S'body'
p23
g1
(cpymunk.body
Body
p24
g3
Ntp25
Rp26
(dp27
g7
(lp28
(S'mass'
p29
F1.0
tp30
a(S'moment'
p31
F66.66666666666667
tp32
a(S'body_type'
p33
L0L
tp34
asg11
(lp35
sg14
(lp36
(S'is_sleeping'
p37
I00
tp38
a(S'_velocity_func'
p39
Ntp40
a(S'_position_func'
p41
Ntp42
asS'general'
p43
(lp44
(S'force'
p45
cpymunk.vec2d
Vec2d
p46
(F0.0
F0.0
tp47
Rp48
tp49
a(S'angle'
p50
F0.6763018702273471
tp51
a(S'position'
p52
g46
(F219.3328435125744
F149.71689077918595
tp53
Rp54
tp55
a(S'center_of_gravity'
p56
g46
(F0.0
F0.0
tp57
Rp58
tp59
a(S'velocity'
p60
g46
(F-57.109256072846875
F83.42753207792967
tp61
Rp62
tp63
a(S'angular_velocity'
p64
F3.0091701263630584
tp65
a(S'torque'
p66
F0.0
tp67
asbtp68
a(S'vertices'
p69
(lp70
g46
(F-10.0
F-10.0
tp71
Rp72
ag46
(F10.0
F-10.0
tp73
Rp74
ag46
(F10.0
F10.0
tp75
Rp76
ag46
(F-10.0
F10.0
tp77
Rp78
atp79
a(S'transform'
p80
Ntp81
a(S'radius'
p82
F0.0
tp83
asg11
(lp84
sg14
(lp85
sg43
(lp86
(S'sensor'
p87
I0
tp88
a(S'collision_type'
p89
L0L
tp90
a(S'filter'
p91
g1
(cpymunk.shape_filter
ShapeFilter
p92
c__builtin__
tuple
p93
(L0L
L4294967295L
L4294967295L
tp94
tp95
Rp96
tp97
a(S'elasticity'
p98
F0.0
tp99
a(S'friction'
p100
F1.0
tp101
a(S'surface_velocity'
p102
g46
(F0.0
F0.0
tp103
Rp104
tp105
a(g87
I0
tp106
a(g89
L0L
tp107
a(g91
g1
(g92
g93
(L0L
L4294967295L
L4294967295L
tp108
tp109
Rp110
tp111
a(g98
F0.0
tp112
a(g100
F1.0
tp113
a(g102
g46
(F0.0
F0.0
tp114
Rp115
tp116
a(g29
F1.0
tp117
a(S'density'
p118
F0.0025
tp119
asbag1
(cpymunk.shapes
Segment
p120
g3
Ntp121
Rp122
(dp123
g7
(lp124
(g23
g1
(g24
g3
Ntp125
Rp126
(dp127
g7
(lp128
(g29
Finf
tp129
a(g31
Finf
tp130
a(g33
L2L
tp131
asg11
(lp132
sg14
(lp133
(g37
I00
tp134
a(g39
Ntp135
a(g41
Ntp136
asg43
(lp137
(g45
g46
(F0.0
F0.0
tp138
Rp139
tp140
a(g50
F0.0
tp141
a(g52
g46
(F0.0
F0.0
tp142
Rp143
tp144
a(g56
g46
(F0.0
F0.0
tp145
Rp146
tp147
a(g60
g46
(F0.0
F0.0
tp148
Rp149
tp150
a(g64
F0.0
tp151
a(g66
F0.0
tp152
asbtp153
a(S'a'
p154
g46
(F295.0
F295.0
tp155
Rp156
tp157
a(S'b'
p158
g46
(F5.0
F295.0
tp159
Rp160
tp161
a(g82
F5.0
tp162
asg11
(lp163
sg14
(lp164
sg43
(lp165
(g87
I0
tp166
a(g89
L0L
tp167
a(g91
g1
(g92
g93
(L0L
L4294967295L
L4294967295L
tp168
tp169
Rp170
tp171
a(g98
F0.5
tp172
a(g100
F1.0
tp173
a(g102
g46
(F0.0
F0.0
tp174
Rp175
tp176
a(g87
I0
tp177
a(g89
L0L
tp178
a(g91
g1
(g92
g93
(L0L
L4294967295L
L4294967295L
tp179
tp180
Rp181
tp182
a(g98
F0.5
tp183
a(g100
F1.0
tp184
a(g102
g46
(F0.0
F0.0
tp185
Rp186
tp187
asbag1
(g18
g3
Ntp188
Rp189
(dp190
g7
(lp191
(g23
g1
(g24
g3
Ntp192
Rp193
(dp194
g7
(lp195
(g29
F1.0
tp196
a(g31
F66.66666666666667
tp197
a(g33
L0L
tp198
asg11
(lp199
sg14
(lp200
(g37
I00
tp201
a(g39
Ntp202
a(g41
Ntp203
asg43
(lp204
(g45
g46
(F0.0
F0.0
tp205
Rp206
tp207
a(g50
F0.5092159882971742
tp208
a(g52
g46
(F258.77592394951466
F115.94413219239883
tp209
Rp210
tp211
a(g56
g46
(F0.0
F0.0
tp212
Rp213
tp214
a(g60
g46
(F89.53439357911026
F124.09963022184998
tp215
Rp216
tp217
a(g64
F3.8936545515193095
tp218
a(g66
F0.0
tp219
asbtp220
a(g69
(lp221
g46
(F-10.0
F-10.0
tp222
Rp223
ag46
(F10.0
F-10.0
tp224
Rp225
ag46
(F10.0
F10.0
tp226
Rp227
ag46
(F-10.0
F10.0
tp228
Rp229
atp230
ag81
a(g82
F0.0
tp231
asg11
(lp232
sg14
(lp233
sg43
(lp234
(g87
I0
tp235
a(g89
L0L
tp236
a(g91
g1
(g92
g93
(L0L
L4294967295L
L4294967295L
tp237
tp238
Rp239
tp240
a(g98
F0.0
tp241
a(g100
F1.0
tp242
a(g102
g46
(F0.0
F0.0
tp243
Rp244
tp245
a(g87
I0
tp246
a(g89
L0L
tp247
a(g91
g1
(g92
g93
(L0L
L4294967295L
L4294967295L
tp248
tp249
Rp250
tp251
a(g98
F0.0
tp252
a(g100
F1.0
tp253
a(g102
g46
(F0.0
F0.0
tp254
Rp255
tp256
a(g29
F1.0
tp257
a(g118
F0.0025
tp258
asbag1
(g18
g3
Ntp259
Rp260
(dp261
g7
(lp262
(g23
g1
(g24
g3
Ntp263
Rp264
(dp265
g7
(lp266
(g29
F1.0
tp267
a(g31
F66.66666666666667
tp268
a(g33
L0L
tp269
asg11
(lp270
sg14
(lp271
(g37
I00
tp272
a(g39
Ntp273
a(g41
Ntp274
asg43
(lp275
(g45
g46
(F0.0
F0.0
tp276
Rp277
tp278
a(g50
F0.6205554473817004
tp279
a(g52
g46
(F258.1948703732948
F144.96228345583816
tp280
Rp281
tp282
a(g56
g46
(F0.0
F0.0
tp283
Rp284
tp285
a(g60
g46
(F-27.996214800128087
F52.66553838568703
tp286
Rp287
tp288
a(g64
F6.607513288191946
tp289
a(g66
F0.0
tp290
asbtp291
a(g69
(lp292
g46
(F-10.0
F-10.0
tp293
Rp294
ag46
(F10.0
F-10.0
tp295
Rp296
ag46
(F10.0
F10.0
tp297
Rp298
ag46
(F-10.0
F10.0
tp299
Rp300
atp301
ag81
a(g82
F0.0
tp302
asg11
(lp303
sg14
(lp304
sg43
(lp305
(g87
I0
tp306
a(g89
L0L
tp307
a(g91
g1
(g92
g93
(L0L
L4294967295L
L4294967295L
tp308
tp309
Rp310
tp311
a(g98
F0.0
tp312
a(g100
F1.0
tp313
a(g102
g46
(F0.0
F0.0
tp314
Rp315
tp316
a(g87
I0
tp317
a(g89
L0L
tp318
a(g91
g1
(g92
g93
(L0L
L4294967295L
L4294967295L
tp319
tp320
Rp321
tp322
a(g98
F0.0
tp323
a(g100
F1.0
tp324
a(g102
g46
(F0.0
F0.0
tp325
Rp326
tp327
a(g29
F1.0
tp328
a(g118
F0.0025
tp329
asbag1
(g18
g3
Ntp330
Rp331
(dp332
g7
(lp333
(g23
g1
(g24
g3
Ntp334
Rp335
(dp336
g7
(lp337
(g29
F1.0
tp338
a(g31
F66.66666666666667
tp339
a(g33
L0L
tp340
asg11
(lp341
sg14
(lp342
(g37
I00
tp343
a(g39
Ntp344
a(g41
Ntp345
asg43
(lp346
(g45
g46
(F0.0
F0.0
tp347
Rp348
tp349
a(g50
F0.24069339466260872
tp350
a(g52
g46
(F248.2829979801623
F77.91041155673406
tp351
Rp352
tp353
a(g56
g46
(F0.0
F0.0
tp354
Rp355
tp356
a(g60
g46
(F-9.68099701343701
F71.46390072556052
tp357
Rp358
tp359
a(g64
F1.4980744034632991
tp360
a(g66
F0.0
tp361
asbtp362
a(g69
(lp363
g46
(F-10.0
F-10.0
tp364
Rp365
ag46
(F10.0
F-10.0
tp366
Rp367
ag46
(F10.0
F10.0
tp368
Rp369
ag46
(F-10.0
F10.0
tp370
Rp371
atp372
ag81
a(g82
F0.0
tp373
asg11
(lp374
sg14
(lp375
sg43
(lp376
(g87
I0
tp377
a(g89
L0L
tp378
a(g91
g1
(g92
g93
(L0L
L4294967295L
L4294967295L
tp379
tp380
Rp381
tp382
a(g98
F0.0
tp383
a(g100
F1.0
tp384
a(g102
g46
(F0.0
F0.0
tp385
Rp386
tp387
a(g87
I0
tp388
a(g89
L0L
tp389
a(g91
g1
(g92
g93
(L0L
L4294967295L
L4294967295L
tp390
tp391
Rp392
tp393
a(g98
F0.0
tp394
a(g100
F1.0
tp395
a(g102
g46
(F0.0
F0.0
tp396
Rp397
tp398
a(g29
F1.0
tp399
a(g118
F0.0025
tp400
asbag1
(cpymunk.shapes
Circle
p401
g3
Ntp402
Rp403
(dp404
g7
(lp405
(g23
g1
(g24
g3
Ntp406
Rp407
(dp408
g7
(lp409
(g29
F20.0
tp410
a(g31
F4000.0
tp411
a(g33
L0L
tp412
asg11
(lp413
sg14
(lp414
(g37
I00
tp415
a(g39
Ntp416
a(g41
Ntp417
asg43
(lp418
(g45
g46
(F0.0
F0.0
tp419
Rp420
tp421
a(g50
F-1.1881517456694084
tp422
a(g52
g46
(F230.7142346156865
F50.50496581975668
tp423
Rp424
tp425
a(g56
g46
(F0.0
F0.0
tp426
Rp427
tp428
a(g60
g46
(F26.48345918480085
F47.5882376557508
tp429
Rp430
tp431
a(g64
F1.2105465672412088
tp432
a(g66
F0.0
tp433
asbtp434
a(g82
F20.0
tp435
a(S'offset'
p436
g46
(F0.0
F0.0
tp437
Rp438
tp439
asg11
(lp440
(S'color'
p441
(I255
I0
I0
I255
tp442
tp443
asg14
(lp444
sg43
(lp445
(g87
I0
tp446
a(g89
L0L
tp447
a(g91
g1
(g92
g93
(L0L
L4294967295L
L4294967295L
tp448
tp449
Rp450
tp451
a(g98
F0.0
tp452
a(g100
F1.0
tp453
a(g102
g46
(F0.0
F0.0
tp454
Rp455
tp456
a(g87
I0
tp457
a(g89
L0L
tp458
a(g91
g1
(g92
g93
(L0L
L4294967295L
L4294967295L
tp459
tp460
Rp461
tp462
a(g98
F0.0
tp463
a(g100
F1.0
tp464
a(g102
g46
(F0.0
F0.0
tp465
Rp466
tp467
a(g29
F20.0
tp468
a(g118
F0.015915494309189534
tp469
asbag1
(g18
g3
Ntp470
Rp471
(dp472
g7
(lp473
(g23
g1
(g24
g3
Ntp474
Rp475
(dp476
g7
(lp477
(g29
F1.0
tp478
a(g31
F66.66666666666667
tp479
a(g33
L0L
tp480
asg11
(lp481
sg14
(lp482
(g37
I00
tp483
a(g39
Ntp484
a(g41
Ntp485
asg43
(lp486
(g45
g46
(F0.0
F0.0
tp487
Rp488
tp489
a(g50
F0.469540969991724
tp490
a(g52
g46
(F242.6664122850179
F104.83549522150989
tp491
Rp492
tp493
a(g56
g46
(F0.0
F0.0
tp494
Rp495
tp496
a(g60
g46
(F132.6845767649215
F61.6832014329149
tp497
Rp498
tp499
a(g64
F3.8650347192389565
tp500
a(g66
F0.0
tp501
asbtp502
a(g69
(lp503
g46
(F-10.0
F-10.0
tp504
Rp505
ag46
(F10.0
F-10.0
tp506
Rp507
ag46
(F10.0
F10.0
tp508
Rp509
ag46
(F-10.0
F10.0
tp510
Rp511
atp512
ag81
a(g82
F0.0
tp513
asg11
(lp514
sg14
(lp515
sg43
(lp516
(g87
I0
tp517
a(g89
L0L
tp518
a(g91
g1
(g92
g93
(L0L
L4294967295L
L4294967295L
tp519
tp520
Rp521
tp522
a(g98
F0.0
tp523
a(g100
F1.0
tp524
a(g102
g46
(F0.0
F0.0
tp525
Rp526
tp527
a(g87
I0
tp528
a(g89
L0L
tp529
a(g91
g1
(g92
g93
(L0L
L4294967295L
L4294967295L
tp530
tp531
Rp532
tp533
a(g98
F0.0
tp534
a(g100
F1.0
tp535
a(g102
g46
(F0.0
F0.0
tp536
Rp537
tp538
a(g29
F1.0
tp539
a(g118
F0.0025
tp540
asbag1
(g18
g3
Ntp541
Rp542
(dp543
g7
(lp544
(g23
g1
(g24
g3
Ntp545
Rp546
(dp547
g7
(lp548
(g29
F1.0
tp549
a(g31
F66.66666666666667
tp550
a(g33
L0L
tp551
asg11
(lp552
sg14
(lp553
(g37
I00
tp554
a(g39
Ntp555
a(g41
Ntp556
asg43
(lp557
(g45
g46
(F0.0
F0.0
tp558
Rp559
tp560
a(g50
F-0.7473086586621304
tp561
a(g52
g46
(F249.5982815434394
F29.118355434612017
tp562
Rp563
tp564
a(g56
g46
(F0.0
F0.0
tp565
Rp566
tp567
a(g60
g46
(F17.709407493444683
F50.16561044493565
tp568
Rp569
tp570
a(g64
F-3.0186028137022354
tp571
a(g66
F0.0
tp572
asbtp573
a(g69
(lp574
g46
(F-10.0
F-10.0
tp575
Rp576
ag46
(F10.0
F-10.0
tp577
Rp578
ag46
(F10.0
F10.0
tp579
Rp580
ag46
(F-10.0
F10.0
tp581
Rp582
atp583
ag81
a(g82
F0.0
tp584
asg11
(lp585
sg14
(lp586
sg43
(lp587
(g87
I0
tp588
a(g89
L0L
tp589
a(g91
g1
(g92
g93
(L0L
L4294967295L
L4294967295L
tp590
tp591
Rp592
tp593
a(g98
F0.0
tp594
a(g100
F1.0
tp595
a(g102
g46
(F0.0
F0.0
tp596
Rp597
tp598
a(g87
I0
tp599
a(g89
L0L
tp600
a(g91
g1
(g92
g93
(L0L
L4294967295L
L4294967295L
tp601
tp602
Rp603
tp604
a(g98
F0.0
tp605
a(g100
F1.0
tp606
a(g102
g46
(F0.0
F0.0
tp607
Rp608
tp609
a(g29
F1.0
tp610
a(g118
F0.0025
tp611
asbag1
(g18
g3
Ntp612
Rp613
(dp614
g7
(lp615
(g23
g1
(g24
g3
Ntp616
Rp617
(dp618
g7
(lp619
(g29
F1.0
tp620
a(g31
F66.66666666666667
tp621
a(g33
L0L
tp622
asg11
(lp623
sg14
(lp624
(g37
I00
tp625
a(g39
Ntp626
a(g41
Ntp627
asg43
(lp628
(g45
g46
(F0.0
F0.0
tp629
Rp630
tp631
a(g50
F-0.25431452845477026
tp632
a(g52
g46
(F267.3671008612634
F23.179970366785977
tp633
Rp634
tp635
a(g56
g46
(F0.0
F0.0
tp636
Rp637
tp638
a(g60
g46
(F10.141121482687089
F6.489436387085994
tp639
Rp640
tp641
a(g64
F-0.7752331407783756
tp642
a(g66
F0.0
tp643
asbtp644
a(g69
(lp645
g46
(F-10.0
F-10.0
tp646
Rp647
ag46
(F10.0
F-10.0
tp648
Rp649
ag46
(F10.0
F10.0
tp650
Rp651
ag46
(F-10.0
F10.0
tp652
Rp653
atp654
ag81
a(g82
F0.0
tp655
asg11
(lp656
sg14
(lp657
sg43
(lp658
(g87
I0
tp659
a(g89
L0L
tp660
a(g91
g1
(g92
g93
(L0L
L4294967295L
L4294967295L
tp661
tp662
Rp663
tp664
a(g98
F0.0
tp665
a(g100
F1.0
tp666
a(g102
g46
(F0.0
F0.0
tp667
Rp668
tp669
a(g87
I0
tp670
a(g89
L0L
tp671
a(g91
g1
(g92
g93
(L0L
L4294967295L
L4294967295L
tp672
tp673
Rp674
tp675
a(g98
F0.0
tp676
a(g100
F1.0
tp677
a(g102
g46
(F0.0
F0.0
tp678
Rp679
tp680
a(g29
F1.0
tp681
a(g118
F0.0025
tp682
asbag1
(g18
g3
Ntp683
Rp684
(dp685
g7
(lp686
(g23
g1
(g24
g3
Ntp687
Rp688
(dp689
g7
(lp690
(g29
F1.0
tp691
a(g31
F66.66666666666667
tp692
a(g33
L0L
tp693
asg11
(lp694
sg14
(lp695
(g37
I00
tp696
a(g39
Ntp697
a(g41
Ntp698
asg43
(lp699
(g45
g46
(F0.0
F0.0
tp700
Rp701
tp702
a(g50
F0.2211990696628735
tp703
a(g52
g46
(F283.1007936046549
F84.7503677889077
tp704
Rp705
tp706
a(g56
g46
(F0.0
F0.0
tp707
Rp708
tp709
a(g60
g46
(F6.590255633781801
F37.271308429723554
tp710
Rp711
tp712
a(g64
F-1.3262838296050106
tp713
a(g66
F0.0
tp714
asbtp715
a(g69
(lp716
g46
(F-10.0
F-10.0
tp717
Rp718
ag46
(F10.0
F-10.0
tp719
Rp720
ag46
(F10.0
F10.0
tp721
Rp722
ag46
(F-10.0
F10.0
tp723
Rp724
atp725
ag81
a(g82
F0.0
tp726
asg11
(lp727
sg14
(lp728
sg43
(lp729
(g87
I0
tp730
a(g89
L0L
tp731
a(g91
g1
(g92
g93
(L0L
L4294967295L
L4294967295L
tp732
tp733
Rp734
tp735
a(g98
F0.0
tp736
a(g100
F1.0
tp737
a(g102
g46
(F0.0
F0.0
tp738
Rp739
tp740
a(g87
I0
tp741
a(g89
L0L
tp742
a(g91
g1
(g92
g93
(L0L
L4294967295L
L4294967295L
tp743
tp744
Rp745
tp746
a(g98
F0.0
tp747
a(g100
F1.0
tp748
a(g102
g46
(F0.0
F0.0
tp749
Rp750
tp751
a(g29
F1.0
tp752
a(g118
F0.0025
tp753
asbag1
(g120
g3
Ntp754
Rp755
(dp756
g7
(lp757
(g23
g126
tp758
a(g154
g46
(F5.0
F295.0
tp759
Rp760
tp761
a(g158
g46
(F5.0
F5.0
tp762
Rp763
tp764
a(g82
F5.0
tp765
asg11
(lp766
sg14
(lp767
sg43
(lp768
(g87
I0
tp769
a(g89
L0L
tp770
a(g91
g1
(g92
g93
(L0L
L4294967295L
L4294967295L
tp771
tp772
Rp773
tp774
a(g98
F0.5
tp775
a(g100
F1.0
tp776
a(g102
g46
(F0.0
F0.0
tp777
Rp778
tp779
a(g87
I0
tp780
a(g89
L0L
tp781
a(g91
g1
(g92
g93
(L0L
L4294967295L
L4294967295L
tp782
tp783
Rp784
tp785
a(g98
F0.5
tp786
a(g100
F1.0
tp787
a(g102
g46
(F0.0
F0.0
tp788
Rp789
tp790
asbag1
(g18
g3
Ntp791
Rp792
(dp793
g7
(lp794
(g23
g1
(g24
g3
Ntp795
Rp796
(dp797
g7
(lp798
(g29
F1.0
tp799
a(g31
F66.66666666666667
tp800
a(g33
L0L
tp801
asg11
(lp802
sg14
(lp803
(g37
I00
tp804
a(g39
Ntp805
a(g41
Ntp806
asg43
(lp807
(g45
g46
(F0.0
F0.0
tp808
Rp809
tp810
a(g50
F0.3494680611306533
tp811
a(g52
g46
(F269.02348102693935
F71.22958827584185
tp812
Rp813
tp814
a(g56
g46
(F0.0
F0.0
tp815
Rp816
tp817
a(g60
g46
(F4.999514858106862
F67.53873401368769
tp818
Rp819
tp820
a(g64
F-0.6545510313709859
tp821
a(g66
F0.0
tp822
asbtp823
a(g69
(lp824
g46
(F-10.0
F-10.0
tp825
Rp826
ag46
(F10.0
F-10.0
tp827
Rp828
ag46
(F10.0
F10.0
tp829
Rp830
ag46
(F-10.0
F10.0
tp831
Rp832
atp833
ag81
a(g82
F0.0
tp834
asg11
(lp835
sg14
(lp836
sg43
(lp837
(g87
I0
tp838
a(g89
L0L
tp839
a(g91
g1
(g92
g93
(L0L
L4294967295L
L4294967295L
tp840
tp841
Rp842
tp843
a(g98
F0.0
tp844
a(g100
F1.0
tp845
a(g102
g46
(F0.0
F0.0
tp846
Rp847
tp848
a(g87
I0
tp849
a(g89
L0L
tp850
a(g91
g1
(g92
g93
(L0L
L4294967295L
L4294967295L
tp851
tp852
Rp853
tp854
a(g98
F0.0
tp855
a(g100
F1.0
tp856
a(g102
g46
(F0.0
F0.0
tp857
Rp858
tp859
a(g29
F1.0
tp860
a(g118
F0.0025
tp861
asbag1
(g18
g3
Ntp862
Rp863
(dp864
g7
(lp865
(g23
g1
(g24
g3
Ntp866
Rp867
(dp868
g7
(lp869
(g29
F1.0
tp870
a(g31
F66.66666666666667
tp871
a(g33
L0L
tp872
asg11
(lp873
sg14
(lp874
(g37
I00
tp875
a(g39
Ntp876
a(g41
Ntp877
asg43
(lp878
(g45
g46
(F0.0
F0.0
tp879
Rp880
tp881
a(g50
F0.15474855490119976
tp882
a(g52
g46
(F252.78477661389573
F59.13659981825031
tp883
Rp884
tp885
a(g56
g46
(F0.0
F0.0
tp886
Rp887
tp888
a(g60
g46
(F13.417537632001109
F71.41985818264334
tp889
Rp890
tp891
a(g64
F0.9085814035517242
tp892
a(g66
F0.0
tp893
asbtp894
a(g69
(lp895
g46
(F-10.0
F-10.0
tp896
Rp897
ag46
(F10.0
F-10.0
tp898
Rp899
ag46
(F10.0
F10.0
tp900
Rp901
ag46
(F-10.0
F10.0
tp902
Rp903
atp904
ag81
a(g82
F0.0
tp905
asg11
(lp906
sg14
(lp907
sg43
(lp908
(g87
I0
tp909
a(g89
L0L
tp910
a(g91
g1
(g92
g93
(L0L
L4294967295L
L4294967295L
tp911
tp912
Rp913
tp914
a(g98
F0.0
tp915
a(g100
F1.0
tp916
a(g102
g46
(F0.0
F0.0
tp917
Rp918
tp919
a(g87
I0
tp920
a(g89
L0L
tp921
a(g91
g1
(g92
g93
(L0L
L4294967295L
L4294967295L
tp922
tp923
Rp924
tp925
a(g98
F0.0
tp926
a(g100
F1.0
tp927
a(g102
g46
(F0.0
F0.0
tp928
Rp929
tp930
a(g29
F1.0
tp931
a(g118
F0.0025
tp932
asbag1
(g18
g3
Ntp933
Rp934
(dp935
g7
(lp936
(g23
g1
(g24
g3
Ntp937
Rp938
(dp939
g7
(lp940
(g29
F1.0
tp941
a(g31
F66.66666666666667
tp942
a(g33
L0L
tp943
asg11
(lp944
sg14
(lp945
(g37
I00
tp946
a(g39
Ntp947
a(g41
Ntp948
asg43
(lp949
(g45
g46
(F0.0
F0.0
tp950
Rp951
tp952
a(g50
F-0.06349283312640468
tp953
a(g52
g46
(F283.90758209844
F61.48647755198748
tp954
Rp955
tp956
a(g56
g46
(F0.0
F0.0
tp957
Rp958
tp959
a(g60
g46
(F15.33822358496831
F51.804032751007824
tp960
Rp961
tp962
a(g64
F0.21366903649426527
tp963
a(g66
F0.0
tp964
asbtp965
a(g69
(lp966
g46
(F-10.0
F-10.0
tp967
Rp968
ag46
(F10.0
F-10.0
tp969
Rp970
ag46
(F10.0
F10.0
tp971
Rp972
ag46
(F-10.0
F10.0
tp973
Rp974
atp975
ag81
a(g82
F0.0
tp976
asg11
(lp977
sg14
(lp978
sg43
(lp979
(g87
I0
tp980
a(g89
L0L
tp981
a(g91
g1
(g92
g93
(L0L
L4294967295L
L4294967295L
tp982
tp983
Rp984
tp985
a(g98
F0.0
tp986
a(g100
F1.0
tp987
a(g102
g46
(F0.0
F0.0
tp988
Rp989
tp990
a(g87
I0
tp991
a(g89
L0L
tp992
a(g91
g1
(g92
g93
(L0L
L4294967295L
L4294967295L
tp993
tp994
Rp995
tp996
a(g98
F0.0
tp997
a(g100
F1.0
tp998
a(g102
g46
(F0.0
F0.0
tp999
Rp1000
tp1001
a(g29
F1.0
tp1002
a(g118
F0.0025
tp1003
asbag1
(g18
g3
Ntp1004
Rp1005
(dp1006
g7
(lp1007
(g23
g1
(g24
g3
Ntp1008
Rp1009
(dp1010
g7
(lp1011
(g29
F1.0
tp1012
a(g31
F66.66666666666667
tp1013
a(g33
L0L
tp1014
asg11
(lp1015
sg14
(lp1016
(g37
I00
tp1017
a(g39
Ntp1018
a(g41
Ntp1019
asg43
(lp1020
(g45
g46
(F0.0
F0.0
tp1021
Rp1022
tp1023
a(g50
F0.37898062318978737
tp1024
a(g52
g46
(F280.9899512311521
F109.48250541941533
tp1025
Rp1026
tp1027
a(g56
g46
(F0.0
F0.0
tp1028
Rp1029
tp1030
a(g60
g46
(F59.04394026599431
F95.27878765571657
tp1031
Rp1032
tp1033
a(g64
F-8.046660353030894
tp1034
a(g66
F0.0
tp1035
asbtp1036
a(g69
(lp1037
g46
(F-10.0
F-10.0
tp1038
Rp1039
ag46
(F10.0
F-10.0
tp1040
Rp1041
ag46
(F10.0
F10.0
tp1042
Rp1043
ag46
(F-10.0
F10.0
tp1044
Rp1045
atp1046
ag81
a(g82
F0.0
tp1047
asg11
(lp1048
sg14
(lp1049
sg43
(lp1050
(g87
I0
tp1051
a(g89
L0L
tp1052
a(g91
g1
(g92
g93
(L0L
L4294967295L
L4294967295L
tp1053
tp1054
Rp1055
tp1056
a(g98
F0.0
tp1057
a(g100
F1.0
tp1058
a(g102
g46
(F0.0
F0.0
tp1059
Rp1060
tp1061
a(g87
I0
tp1062
a(g89
L0L
tp1063
a(g91
g1
(g92
g93
(L0L
L4294967295L
L4294967295L
tp1064
tp1065
Rp1066
tp1067
a(g98
F0.0
tp1068
a(g100
F1.0
tp1069
a(g102
g46
(F0.0
F0.0
tp1070
Rp1071
tp1072
a(g29
F1.0
tp1073
a(g118
F0.0025
tp1074
asbag1
(g18
g3
Ntp1075
Rp1076
(dp1077
g7
(lp1078
(g23
g1
(g24
g3
Ntp1079
Rp1080
(dp1081
g7
(lp1082
(g29
F1.0
tp1083
a(g31
F66.66666666666667
tp1084
a(g33
L0L
tp1085
asg11
(lp1086
sg14
(lp1087
(g37
I00
tp1088
a(g39
Ntp1089
a(g41
Ntp1090
asg43
(lp1091
(g45
g46
(F0.0
F0.0
tp1092
Rp1093
tp1094
a(g50
F-0.3743150096668031
tp1095
a(g52
g46
(F269.3811200316116
F44.39873076214291
tp1096
Rp1097
tp1098
a(g56
g46
(F0.0
F0.0
tp1099
Rp1100
tp1101
a(g60
g46
(F14.114582317118474
F66.67036984836052
tp1102
Rp1103
tp1104
a(g64
F-1.0045510506698607
tp1105
a(g66
F0.0
tp1106
asbtp1107
a(g69
(lp1108
g46
(F-10.0
F-10.0
tp1109
Rp1110
ag46
(F10.0
F-10.0
tp1111
Rp1112
ag46
(F10.0
F10.0
tp1113
Rp1114
ag46
(F-10.0
F10.0
tp1115
Rp1116
atp1117
ag81
a(g82
F0.0
tp1118
asg11
(lp1119
sg14
(lp1120
sg43
(lp1121
(g87
I0
tp1122
a(g89
L0L
tp1123
a(g91
g1
(g92
g93
(L0L
L4294967295L
L4294967295L
tp1124
tp1125
Rp1126
tp1127
a(g98
F0.0
tp1128
a(g100
F1.0
tp1129
a(g102
g46
(F0.0
F0.0
tp1130
Rp1131
tp1132
a(g87
I0
tp1133
a(g89
L0L
tp1134
a(g91
g1
(g92
g93
(L0L
L4294967295L
L4294967295L
tp1135
tp1136
Rp1137
tp1138
a(g98
F0.0
tp1139
a(g100
F1.0
tp1140
a(g102
g46
(F0.0
F0.0
tp1141
Rp1142
tp1143
a(g29
F1.0
tp1144
a(g118
F0.0025
tp1145
asbag1
(g18
g3
Ntp1146
Rp1147
(dp1148
g7
(lp1149
(g23
g1
(g24
g3
Ntp1150
Rp1151
(dp1152
g7
(lp1153
(g29
F1.0
tp1154
a(g31
F66.66666666666667
tp1155
a(g33
L0L
tp1156
asg11
(lp1157
sg14
(lp1158
(g37
I00
tp1159
a(g39
Ntp1160
a(g41
Ntp1161
asg43
(lp1162
(g45
g46
(F0.0
F0.0
tp1163
Rp1164
tp1165
a(g50
F0.24944632002099043
tp1166
a(g52
g46
(F265.4033457555431
F91.28257527968755
tp1167
Rp1168
tp1169
a(g56
g46
(F0.0
F0.0
tp1170
Rp1171
tp1172
a(g60
g46
(F8.461512317231175
F84.34420105852351
tp1173
Rp1174
tp1175
a(g64
F-1.7811837551274279
tp1176
a(g66
F0.0
tp1177
asbtp1178
a(g69
(lp1179
g46
(F-10.0
F-10.0
tp1180
Rp1181
ag46
(F10.0
F-10.0
tp1182
Rp1183
ag46
(F10.0
F10.0
tp1184
Rp1185
ag46
(F-10.0
F10.0
tp1186
Rp1187
atp1188
ag81
a(g82
F0.0
tp1189
asg11
(lp1190
sg14
(lp1191
sg43
(lp1192
(g87
I0
tp1193
a(g89
L0L
tp1194
a(g91
g1
(g92
g93
(L0L
L4294967295L
L4294967295L
tp1195
tp1196
Rp1197
tp1198
a(g98
F0.0
tp1199
a(g100
F1.0
tp1200
a(g102
g46
(F0.0
F0.0
tp1201
Rp1202
tp1203
a(g87
I0
tp1204
a(g89
L0L
tp1205
a(g91
g1
(g92
g93
(L0L
L4294967295L
L4294967295L
tp1206
tp1207
Rp1208
tp1209
a(g98
F0.0
tp1210
a(g100
F1.0
tp1211
a(g102
g46
(F0.0
F0.0
tp1212
Rp1213
tp1214
a(g29
F1.0
tp1215
a(g118
F0.0025
tp1216
asbag1
(g18
g3
Ntp1217
Rp1218
(dp1219
g7
(lp1220
(g23
g1
(g24
g3
Ntp1221
Rp1222
(dp1223
g7
(lp1224
(g29
F1.0
tp1225
a(g31
F66.66666666666667
tp1226
a(g33
L0L
tp1227
asg11
(lp1228
sg14
(lp1229
(g37
I00
tp1230
a(g39
Ntp1231
a(g41
Ntp1232
asg43
(lp1233
(g45
g46
(F0.0
F0.0
tp1234
Rp1235
tp1236
a(g50
F0.5668908317225944
tp1237
a(g52
g46
(F223.11926436771986
F119.22928739462422
tp1238
Rp1239
tp1240
a(g56
g46
(F0.0
F0.0
tp1241
Rp1242
tp1243
a(g60
g46
(F111.36218839295684
F58.681833582088984
tp1244
Rp1245
tp1246
a(g64
F2.1504623253303645
tp1247
a(g66
F0.0
tp1248
asbtp1249
a(g69
(lp1250
g46
(F-10.0
F-10.0
tp1251
Rp1252
ag46
(F10.0
F-10.0
tp1253
Rp1254
ag46
(F10.0
F10.0
tp1255
Rp1256
ag46
(F-10.0
F10.0
tp1257
Rp1258
atp1259
ag81
a(g82
F0.0
tp1260
asg11
(lp1261
sg14
(lp1262
sg43
(lp1263
(g87
I0
tp1264
a(g89
L0L
tp1265
a(g91
g1
(g92
g93
(L0L
L4294967295L
L4294967295L
tp1266
tp1267
Rp1268
tp1269
a(g98
F0.0
tp1270
a(g100
F1.0
tp1271
a(g102
g46
(F0.0
F0.0
tp1272
Rp1273
tp1274
a(g87
I0
tp1275
a(g89
L0L
tp1276
a(g91
g1
(g92
g93
(L0L
L4294967295L
L4294967295L
tp1277
tp1278
Rp1279
tp1280
a(g98
F0.0
tp1281
a(g100
F1.0
tp1282
a(g102
g46
(F0.0
F0.0
tp1283
Rp1284
tp1285
a(g29
F1.0
tp1286
a(g118
F0.0025
tp1287
asbag1
(g18
g3
Ntp1288
Rp1289
(dp1290
g7
(lp1291
(g23
g1
(g24
g3
Ntp1292
Rp1293
(dp1294
g7
(lp1295
(g29
F1.0
tp1296
a(g31
F66.66666666666667
tp1297
a(g33
L0L
tp1298
asg11
(lp1299
sg14
(lp1300
(g37
I00
tp1301
a(g39
Ntp1302
a(g41
Ntp1303
asg43
(lp1304
(g45
g46
(F0.0
F0.0
tp1305
Rp1306
tp1307
a(g50
F0.6101638798464811
tp1308
a(g52
g46
(F273.20624451095273
F129.10625758610823
tp1309
Rp1310
tp1311
a(g56
g46
(F0.0
F0.0
tp1312
Rp1313
tp1314
a(g60
g46
(F163.01003906913087
F173.66394149750488
tp1315
Rp1316
tp1317
a(g64
F-4.149902784980861
tp1318
a(g66
F0.0
tp1319
asbtp1320
a(g69
(lp1321
g46
(F-10.0
F-10.0
tp1322
Rp1323
ag46
(F10.0
F-10.0
tp1324
Rp1325
ag46
(F10.0
F10.0
tp1326
Rp1327
ag46
(F-10.0
F10.0
tp1328
Rp1329
atp1330
ag81
a(g82
F0.0
tp1331
asg11
(lp1332
sg14
(lp1333
sg43
(lp1334
(g87
I0
tp1335
a(g89
L0L
tp1336
a(g91
g1
(g92
g93
(L0L
L4294967295L
L4294967295L
tp1337
tp1338
Rp1339
tp1340
a(g98
F0.0
tp1341
a(g100
F1.0
tp1342
a(g102
g46
(F0.0
F0.0
tp1343
Rp1344
tp1345
a(g87
I0
tp1346
a(g89
L0L
tp1347
a(g91
g1
(g92
g93
(L0L
L4294967295L
L4294967295L
tp1348
tp1349
Rp1350
tp1351
a(g98
F0.0
tp1352
a(g100
F1.0
tp1353
a(g102
g46
(F0.0
F0.0
tp1354
Rp1355
tp1356
a(g29
F1.0
tp1357
a(g118
F0.0025
tp1358
asbag1
(g18
g3
Ntp1359
Rp1360
(dp1361
g7
(lp1362
(g23
g1
(g24
g3
Ntp1363
Rp1364
(dp1365
g7
(lp1366
(g29
F1.0
tp1367
a(g31
F66.66666666666667
tp1368
a(g33
L0L
tp1369
asg11
(lp1370
sg14
(lp1371
(g37
I00
tp1372
a(g39
Ntp1373
a(g41
Ntp1374
asg43
(lp1375
(g45
g46
(F0.0
F0.0
tp1376
Rp1377
tp1378
a(g50
F-0.1381303777622441
tp1379
a(g52
g46
(F283.8043688664003
F20.4170019750681
tp1380
Rp1381
tp1382
a(g56
g46
(F0.0
F0.0
tp1383
Rp1384
tp1385
a(g60
g46
(F4.5301964010081885
F-1.2208290915056739
tp1386
Rp1387
tp1388
a(g64
F-0.45784687891842535
tp1389
a(g66
F0.0
tp1390
asbtp1391
a(g69
(lp1392
g46
(F-10.0
F-10.0
tp1393
Rp1394
ag46
(F10.0
F-10.0
tp1395
Rp1396
ag46
(F10.0
F10.0
tp1397
Rp1398
ag46
(F-10.0
F10.0
tp1399
Rp1400
atp1401
ag81
a(g82
F0.0
tp1402
asg11
(lp1403
sg14
(lp1404
sg43
(lp1405
(g87
I0
tp1406
a(g89
L0L
tp1407
a(g91
g1
(g92
g93
(L0L
L4294967295L
L4294967295L
tp1408
tp1409
Rp1410
tp1411
a(g98
F0.0
tp1412
a(g100
F1.0
tp1413
a(g102
g46
(F0.0
F0.0
tp1414
Rp1415
tp1416
a(g87
I0
tp1417
a(g89
L0L
tp1418
a(g91
g1
(g92
g93
(L0L
L4294967295L
L4294967295L
tp1419
tp1420
Rp1421
tp1422
a(g98
F0.0
tp1423
a(g100
F1.0
tp1424
a(g102
g46
(F0.0
F0.0
tp1425
Rp1426
tp1427
a(g29
F1.0
tp1428
a(g118
F0.0025
tp1429
asbag1
(g18
g3
Ntp1430
Rp1431
(dp1432
g7
(lp1433
(g23
g1
(g24
g3
Ntp1434
Rp1435
(dp1436
g7
(lp1437
(g29
F1.0
tp1438
a(g31
F66.66666666666667
tp1439
a(g33
L0L
tp1440
asg11
(lp1441
sg14
(lp1442
(g37
I00
tp1443
a(g39
Ntp1444
a(g41
Ntp1445
asg43
(lp1446
(g45
g46
(F0.0
F0.0
tp1447
Rp1448
tp1449
a(g50
F0.6963083205748131
tp1450
a(g52
g46
(F203.7853827791193
F137.81541194584736
tp1451
Rp1452
tp1453
a(g56
g46
(F0.0
F0.0
tp1454
Rp1455
tp1456
a(g60
g46
(F-23.340246974109196
F34.38357275299181
tp1457
Rp1458
tp1459
a(g64
F3.007172844561985
tp1460
a(g66
F0.0
tp1461
asbtp1462
a(g69
(lp1463
g46
(F-10.0
F-10.0
tp1464
Rp1465
ag46
(F10.0
F-10.0
tp1466
Rp1467
ag46
(F10.0
F10.0
tp1468
Rp1469
ag46
(F-10.0
F10.0
tp1470
Rp1471
atp1472
ag81
a(g82
F0.0
tp1473
asg11
(lp1474
sg14
(lp1475
sg43
(lp1476
(g87
I0
tp1477
a(g89
L0L
tp1478
a(g91
g1
(g92
g93
(L0L
L4294967295L
L4294967295L
tp1479
tp1480
Rp1481
tp1482
a(g98
F0.0
tp1483
a(g100
F1.0
tp1484
a(g102
g46
(F0.0
F0.0
tp1485
Rp1486
tp1487
a(g87
I0
tp1488
a(g89
L0L
tp1489
a(g91
g1
(g92
g93
(L0L
L4294967295L
L4294967295L
tp1490
tp1491
Rp1492
tp1493
a(g98
F0.0
tp1494
a(g100
F1.0
tp1495
a(g102
g46
(F0.0
F0.0
tp1496
Rp1497
tp1498
a(g29
F1.0
tp1499
a(g118
F0.0025
tp1500
asbag1
(g120
g3
Ntp1501
Rp1502
(dp1503
g7
(lp1504
(g23
g126
tp1505
a(g154
g46
(F295.0
F5.0
tp1506
Rp1507
tp1508
a(g158
g46
(F295.0
F295.0
tp1509
Rp1510
tp1511
a(g82
F5.0
tp1512
asg11
(lp1513
sg14
(lp1514
sg43
(lp1515
(g87
I0
tp1516
a(g89
L0L
tp1517
a(g91
g1
(g92
g93
(L0L
L4294967295L
L4294967295L
tp1518
tp1519
Rp1520
tp1521
a(g98
F0.5
tp1522
a(g100
F1.0
tp1523
a(g102
g46
(F0.0
F0.0
tp1524
Rp1525
tp1526
a(g87
I0
tp1527
a(g89
L0L
tp1528
a(g91
g1
(g92
g93
(L0L
L4294967295L
L4294967295L
tp1529
tp1530
Rp1531
tp1532
a(g98
F0.5
tp1533
a(g100
F1.0
tp1534
a(g102
g46
(F0.0
F0.0
tp1535
Rp1536
tp1537
asbag1
(g18
g3
Ntp1538
Rp1539
(dp1540
g7
(lp1541
(g23
g1
(g24
g3
Ntp1542
Rp1543
(dp1544
g7
(lp1545
(g29
F1.0
tp1546
a(g31
F66.66666666666667
tp1547
a(g33
L0L
tp1548
asg11
(lp1549
sg14
(lp1550
(g37
I00
tp1551
a(g39
Ntp1552
a(g41
Ntp1553
asg43
(lp1554
(g45
g46
(F0.0
F0.0
tp1555
Rp1556
tp1557
a(g50
F0.6732373344937935
tp1558
a(g52
g46
(F236.42510200625964
F133.90637661783236
tp1559
Rp1560
tp1561
a(g56
g46
(F0.0
F0.0
tp1562
Rp1563
tp1564
a(g60
g46
(F84.01575350981936
F110.73627353273261
tp1565
Rp1566
tp1567
a(g64
F3.613305027610946
tp1568
a(g66
F0.0
tp1569
asbtp1570
a(g69
(lp1571
g46
(F-10.0
F-10.0
tp1572
Rp1573
ag46
(F10.0
F-10.0
tp1574
Rp1575
ag46
(F10.0
F10.0
tp1576
Rp1577
ag46
(F-10.0
F10.0
tp1578
Rp1579
atp1580
ag81
a(g82
F0.0
tp1581
asg11
(lp1582
sg14
(lp1583
sg43
(lp1584
(g87
I0
tp1585
a(g89
L0L
tp1586
a(g91
g1
(g92
g93
(L0L
L4294967295L
L4294967295L
tp1587
tp1588
Rp1589
tp1590
a(g98
F0.0
tp1591
a(g100
F1.0
tp1592
a(g102
g46
(F0.0
F0.0
tp1593
Rp1594
tp1595
a(g87
I0
tp1596
a(g89
L0L
tp1597
a(g91
g1
(g92
g93
(L0L
L4294967295L
L4294967295L
tp1598
tp1599
Rp1600
tp1601
a(g98
F0.0
tp1602
a(g100
F1.0
tp1603
a(g102
g46
(F0.0
F0.0
tp1604
Rp1605
tp1606
a(g29
F1.0
tp1607
a(g118
F0.0025
tp1608
asbag1
(g18
g3
Ntp1609
Rp1610
(dp1611
g7
(lp1612
(g23
g1
(g24
g3
Ntp1613
Rp1614
(dp1615
g7
(lp1616
(g29
F1.0
tp1617
a(g31
F66.66666666666667
tp1618
a(g33
L0L
tp1619
asg11
(lp1620
sg14
(lp1621
(g37
I00
tp1622
a(g39
Ntp1623
a(g41
Ntp1624
asg43
(lp1625
(g45
g46
(F0.0
F0.0
tp1626
Rp1627
tp1628
a(g50
F0.910286823231375
tp1629
a(g52
g46
(F185.00487172067008
F161.444896841959
tp1630
Rp1631
tp1632
a(g56
g46
(F0.0
F0.0
tp1633
Rp1634
tp1635
a(g60
g46
(F-135.09247858930573
F106.29845977681191
tp1636
Rp1637
tp1638
a(g64
F6.886605617191127
tp1639
a(g66
F0.0
tp1640
asbtp1641
a(g69
(lp1642
g46
(F-10.0
F-10.0
tp1643
Rp1644
ag46
(F10.0
F-10.0
tp1645
Rp1646
ag46
(F10.0
F10.0
tp1647
Rp1648
ag46
(F-10.0
F10.0
tp1649
Rp1650
atp1651
ag81
a(g82
F0.0
tp1652
asg11
(lp1653
sg14
(lp1654
sg43
(lp1655
(g87
I0
tp1656
a(g89
L0L
tp1657
a(g91
g1
(g92
g93
(L0L
L4294967295L
L4294967295L
tp1658
tp1659
Rp1660
tp1661
a(g98
F0.0
tp1662
a(g100
F1.0
tp1663
a(g102
g46
(F0.0
F0.0
tp1664
Rp1665
tp1666
a(g87
I0
tp1667
a(g89
L0L
tp1668
a(g91
g1
(g92
g93
(L0L
L4294967295L
L4294967295L
tp1669
tp1670
Rp1671
tp1672
a(g98
F0.0
tp1673
a(g100
F1.0
tp1674
a(g102
g46
(F0.0
F0.0
tp1675
Rp1676
tp1677
a(g29
F1.0
tp1678
a(g118
F0.0025
tp1679
asbag1
(g120
g3
Ntp1680
Rp1681
(dp1682
g7
(lp1683
(g23
g126
tp1684
a(g154
g46
(F5.0
F5.0
tp1685
Rp1686
tp1687
a(g158
g46
(F295.0
F5.0
tp1688
Rp1689
tp1690
a(g82
F5.0
tp1691
asg11
(lp1692
sg14
(lp1693
sg43
(lp1694
(g87
I0
tp1695
a(g89
L0L
tp1696
a(g91
g1
(g92
g93
(L0L
L4294967295L
L4294967295L
tp1697
tp1698
Rp1699
tp1700
a(g98
F0.5
tp1701
a(g100
F1.0
tp1702
a(g102
g46
(F0.0
F0.0
tp1703
Rp1704
tp1705
a(g87
I0
tp1706
a(g89
L0L
tp1707
a(g91
g1
(g92
g93
(L0L
L4294967295L
L4294967295L
tp1708
tp1709
Rp1710
tp1711
a(g98
F0.5
tp1712
a(g100
F1.0
tp1713
a(g102
g46
(F0.0
F0.0
tp1714
Rp1715
tp1716
asbag1
(g18
g3
Ntp1717
Rp1718
(dp1719
g7
(lp1720
(g23
g1
(g24
g3
Ntp1721
Rp1722
(dp1723
g7
(lp1724
(g29
F1.0
tp1725
a(g31
F66.66666666666667
tp1726
a(g33
L0L
tp1727
asg11
(lp1728
sg14
(lp1729
(g37
I00
tp1730
a(g39
Ntp1731
a(g41
Ntp1732
asg43
(lp1733
(g45
g46
(F0.0
F0.0
tp1734
Rp1735
tp1736
a(g50
F-0.15786553028482445
tp1737
a(g52
g46
(F284.2020595859793
F40.10853588942213
tp1738
Rp1739
tp1740
a(g56
g46
(F0.0
F0.0
tp1741
Rp1742
tp1743
a(g60
g46
(F9.77681231272746
F46.06769614817547
tp1744
Rp1745
tp1746
a(g64
F0.15727470519096576
tp1747
a(g66
F0.0
tp1748
asbtp1749
a(g69
(lp1750
g46
(F-10.0
F-10.0
tp1751
Rp1752
ag46
(F10.0
F-10.0
tp1753
Rp1754
ag46
(F10.0
F10.0
tp1755
Rp1756
ag46
(F-10.0
F10.0
tp1757
Rp1758
atp1759
ag81
a(g82
F0.0
tp1760
asg11
(lp1761
sg14
(lp1762
sg43
(lp1763
(g87
I0
tp1764
a(g89
L0L
tp1765
a(g91
g1
(g92
g93
(L0L
L4294967295L
L4294967295L
tp1766
tp1767
Rp1768
tp1769
a(g98
F0.0
tp1770
a(g100
F1.0
tp1771
a(g102
g46
(F0.0
F0.0
tp1772
Rp1773
tp1774
a(g87
I0
tp1775
a(g89
L0L
tp1776
a(g91
g1
(g92
g93
(L0L
L4294967295L
L4294967295L
tp1777
tp1778
Rp1779
tp1780
a(g98
F0.0
tp1781
a(g100
F1.0
tp1782
a(g102
g46
(F0.0
F0.0
tp1783
Rp1784
tp1785
a(g29
F1.0
tp1786
a(g118
F0.0025
tp1787
asbatp1788
a(S'bodies'
p1789
(lp1790
g938
ag193
ag796
ag1722
ag1151
ag264
ag688
ag1080
ag1543
ag475
ag1364
ag546
ag335
ag407
ag26
ag1293
ag1222
ag1009
ag1435
ag617
ag867
ag1614
atp1791
a(S'constraints'
p1792
(lp1793
tp1794
a(S'_static_body'
p1795
g126
tp1796
a(S'_handlers'
p1797
(lp1798
tp1799
asg43
(lp1800
(S'iterations'
p1801
I10
tp1802
a(S'gravity'
p1803
g46
(F0.0
F-1000.0
tp1804
Rp1805
tp1806
a(S'damping'
p1807
F1.0
tp1808
a(S'idle_speed_threshold'
p1809
F0.0
tp1810
a(S'sleep_time_threshold'
p1811
F0.5
tp1812
a(S'collision_slop'
p1813
F0.10000000149011612
tp1814
a(S'collision_bias'
p1815
F0.0017970074436457143
tp1816
a(S'collision_persistence'
p1817
L3L
tp1818
a(S'threads'
p1819
I1
tp1820
asbag1
(g2
g3
Ntp1821
Rp1822
(dp1823
g7
(lp1824
(g9
I00
tp1825
asg11
(lp1826
(g9
I00
tp1827
asg14
(lp1828
(g16
(lp1829
g1
(g18
g3
Ntp1830
Rp1831
(dp1832
g7
(lp1833
(g23
g1
(g24
g3
Ntp1834
Rp1835
(dp1836
g7
(lp1837
(g29
F1.0
tp1838
a(g31
F66.66666666666667
tp1839
a(g33
L0L
tp1840
asg11
(lp1841
sg14
(lp1842
(g37
I00
tp1843
a(g39
Ntp1844
a(g41
Ntp1845
asg43
(lp1846
(g45
g46
(F0.0
F0.0
tp1847
Rp1848
tp1849
a(g50
F-0.017801697700029213
tp1850
a(g52
g46
(F280.8602166268201
F19.851227864981972
tp1851
Rp1852
tp1853
a(g56
g46
(F0.0
F0.0
tp1854
Rp1855
tp1856
a(g60
g46
(F-10.280543455205358
F2.1474047452645726
tp1857
Rp1858
tp1859
a(g64
F0.14067740013976127
tp1860
a(g66
F0.0
tp1861
asbtp1862
a(g69
(lp1863
g46
(F-10.0
F-10.0
tp1864
Rp1865
ag46
(F10.0
F-10.0
tp1866
Rp1867
ag46
(F10.0
F10.0
tp1868
Rp1869
ag46
(F-10.0
F10.0
tp1870
Rp1871
atp1872
ag81
a(g82
F0.0
tp1873
asg11
(lp1874
sg14
(lp1875
sg43
(lp1876
(g87
I0
tp1877
a(g89
L0L
tp1878
a(g91
g1
(g92
g93
(L0L
L4294967295L
L4294967295L
tp1879
tp1880
Rp1881
tp1882
a(g98
F0.0
tp1883
a(g100
F1.0
tp1884
a(g102
g46
(F0.0
F0.0
tp1885
Rp1886
tp1887
a(g87
I0
tp1888
a(g89
L0L
tp1889
a(g91
g1
(g92
g93
(L0L
L4294967295L
L4294967295L
tp1890
tp1891
Rp1892
tp1893
a(g98
F0.0
tp1894
a(g100
F1.0
tp1895
a(g102
g46
(F0.0
F0.0
tp1896
Rp1897
tp1898
a(g29
F1.0
tp1899
a(g118
F0.0025
tp1900
asbag1
(g401
g3
Ntp1901
Rp1902
(dp1903
g7
(lp1904
(g23
g1
(g24
g3
Ntp1905
Rp1906
(dp1907
g7
(lp1908
(g29
F20.0
tp1909
a(g31
F4000.0
tp1910
a(g33
L0L
tp1911
asg11
(lp1912
sg14
(lp1913
(g37
I00
tp1914
a(g39
Ntp1915
a(g41
Ntp1916
asg43
(lp1917
(g45
g46
(F0.0
F0.0
tp1918
Rp1919
tp1920
a(g50
F-0.6171629376272038
tp1921
a(g52
g46
(F234.81928410500862
F61.01805600205886
tp1922
Rp1923
tp1924
a(g56
g46
(F0.0
F0.0
tp1925
Rp1926
tp1927
a(g60
g46
(F99.1735231349029
F127.02772753043773
tp1928
Rp1929
tp1930
a(g64
F-1.7257159236943
tp1931
a(g66
F0.0
tp1932
asbtp1933
a(g82
F20.0
tp1934
a(g436
g46
(F0.0
F0.0
tp1935
Rp1936
tp1937
asg11
(lp1938
(g441
g442
tp1939
asg14
(lp1940
sg43
(lp1941
(g87
I0
tp1942
a(g89
L0L
tp1943
a(g91
g1
(g92
g93
(L0L
L4294967295L
L4294967295L
tp1944
tp1945
Rp1946
tp1947
a(g98
F0.0
tp1948
a(g100
F1.0
tp1949
a(g102
g46
(F0.0
F0.0
tp1950
Rp1951
tp1952
a(g87
I0
tp1953
a(g89
L0L
tp1954
a(g91
g1
(g92
g93
(L0L
L4294967295L
L4294967295L
tp1955
tp1956
Rp1957
tp1958
a(g98
F0.0
tp1959
a(g100
F1.0
tp1960
a(g102
g46
(F0.0
F0.0
tp1961
Rp1962
tp1963
a(g29
F20.0
tp1964
a(g118
F0.015915494309189534
tp1965
asbag1
(g18
g3
Ntp1966
Rp1967
(dp1968
g7
(lp1969
(g23
g1
(g24
g3
Ntp1970
Rp1971
(dp1972
g7
(lp1973
(g29
F1.0
tp1974
a(g31
F66.66666666666667
tp1975
a(g33
L0L
tp1976
asg11
(lp1977
sg14
(lp1978
(g37
I00
tp1979
a(g39
Ntp1980
a(g41
Ntp1981
asg43
(lp1982
(g45
g46
(F0.0
F0.0
tp1983
Rp1984
tp1985
a(g50
F0.4162456719128622
tp1986
a(g52
g46
(F259.2271174081053
F143.7630331946743
tp1987
Rp1988
tp1989
a(g56
g46
(F0.0
F0.0
tp1990
Rp1991
tp1992
a(g60
g46
(F-16.920068397491562
F52.38827784417724
tp1993
Rp1994
tp1995
a(g64
F6.614508409353597
tp1996
a(g66
F0.0
tp1997
asbtp1998
a(g69
(lp1999
g46
(F-10.0
F-10.0
tp2000
Rp2001
ag46
(F10.0
F-10.0
tp2002
Rp2003
ag46
(F10.0
F10.0
tp2004
Rp2005
ag46
(F-10.0
F10.0
tp2006
Rp2007
atp2008
ag81
a(g82
F0.0
tp2009
asg11
(lp2010
sg14
(lp2011
sg43
(lp2012
(g87
I0
tp2013
a(g89
L0L
tp2014
a(g91
g1
(g92
g93
(L0L
L4294967295L
L4294967295L
tp2015
tp2016
Rp2017
tp2018
a(g98
F0.0
tp2019
a(g100
F1.0
tp2020
a(g102
g46
(F0.0
F0.0
tp2021
Rp2022
tp2023
a(g87
I0
tp2024
a(g89
L0L
tp2025
a(g91
g1
(g92
g93
(L0L
L4294967295L
L4294967295L
tp2026
tp2027
Rp2028
tp2029
a(g98
F0.0
tp2030
a(g100
F1.0
tp2031
a(g102
g46
(F0.0
F0.0
tp2032
Rp2033
tp2034
a(g29
F1.0
tp2035
a(g118
F0.0025
tp2036
asbag1
(g18
g3
Ntp2037
Rp2038
(dp2039
g7
(lp2040
(g23
g1
(g24
g3
Ntp2041
Rp2042
(dp2043
g7
(lp2044
(g29
F1.0
tp2045
a(g31
F66.66666666666667
tp2046
a(g33
L0L
tp2047
asg11
(lp2048
sg14
(lp2049
(g37
I00
tp2050
a(g39
Ntp2051
a(g41
Ntp2052
asg43
(lp2053
(g45
g46
(F0.0
F0.0
tp2054
Rp2055
tp2056
a(g50
F0.5671298836911235
tp2057
a(g52
g46
(F185.53262731286293
F168.1783955219178
tp2058
Rp2059
tp2060
a(g56
g46
(F0.0
F0.0
tp2061
Rp2062
tp2063
a(g60
g46
(F-137.68675201521066
F150.86947620621206
tp2064
Rp2065
tp2066
a(g64
F4.394157554249054
tp2067
a(g66
F0.0
tp2068
asbtp2069
a(g69
(lp2070
g46
(F-10.0
F-10.0
tp2071
Rp2072
ag46
(F10.0
F-10.0
tp2073
Rp2074
ag46
(F10.0
F10.0
tp2075
Rp2076
ag46
(F-10.0
F10.0
tp2077
Rp2078
atp2079
ag81
a(g82
F0.0
tp2080
asg11
(lp2081
sg14
(lp2082
sg43
(lp2083
(g87
I0
tp2084
a(g89
L0L
tp2085
a(g91
g1
(g92
g93
(L0L
L4294967295L
L4294967295L
tp2086
tp2087
Rp2088
tp2089
a(g98
F0.0
tp2090
a(g100
F1.0
tp2091
a(g102
g46
(F0.0
F0.0
tp2092
Rp2093
tp2094
a(g87
I0
tp2095
a(g89
L0L
tp2096
a(g91
g1
(g92
g93
(L0L
L4294967295L
L4294967295L
tp2097
tp2098
Rp2099
tp2100
a(g98
F0.0
tp2101
a(g100
F1.0
tp2102
a(g102
g46
(F0.0
F0.0
tp2103
Rp2104
tp2105
a(g29
F1.0
tp2106
a(g118
F0.0025
tp2107
asbag1
(g18
g3
Ntp2108
Rp2109
(dp2110
g7
(lp2111
(g23
g1
(g24
g3
Ntp2112
Rp2113
(dp2114
g7
(lp2115
(g29
F1.0
tp2116
a(g31
F66.66666666666667
tp2117
a(g33
L0L
tp2118
asg11
(lp2119
sg14
(lp2120
(g37
I00
tp2121
a(g39
Ntp2122
a(g41
Ntp2123
asg43
(lp2124
(g45
g46
(F0.0
F0.0
tp2125
Rp2126
tp2127
a(g50
F-2.5976606314513693
tp2128
a(g52
g46
(F243.44186707069605
F34.12910659472129
tp2129
Rp2130
tp2131
a(g56
g46
(F0.0
F0.0
tp2132
Rp2133
tp2134
a(g60
g46
(F-3.646698081376597
F98.925812795233
tp2135
Rp2136
tp2137
a(g64
F-6.807630609349941
tp2138
a(g66
F0.0
tp2139
asbtp2140
a(g69
(lp2141
g46
(F-10.0
F-10.0
tp2142
Rp2143
ag46
(F10.0
F-10.0
tp2144
Rp2145
ag46
(F10.0
F10.0
tp2146
Rp2147
ag46
(F-10.0
F10.0
tp2148
Rp2149
atp2150
ag81
a(g82
F0.0
tp2151
asg11
(lp2152
sg14
(lp2153
sg43
(lp2154
(g87
I0
tp2155
a(g89
L0L
tp2156
a(g91
g1
(g92
g93
(L0L
L4294967295L
L4294967295L
tp2157
tp2158
Rp2159
tp2160
a(g98
F0.0
tp2161
a(g100
F1.0
tp2162
a(g102
g46
(F0.0
F0.0
tp2163
Rp2164
tp2165
a(g87
I0
tp2166
a(g89
L0L
tp2167
a(g91
g1
(g92
g93
(L0L
L4294967295L
L4294967295L
tp2168
tp2169
Rp2170
tp2171
a(g98
F0.0
tp2172
a(g100
F1.0
tp2173
a(g102
g46
(F0.0
F0.0
tp2174
Rp2175
tp2176
a(g29
F1.0
tp2177
a(g118
F0.0025
tp2178
asbag1
(g18
g3
Ntp2179
Rp2180
(dp2181
g7
(lp2182
(g23
g1
(g24
g3
Ntp2183
Rp2184
(dp2185
g7
(lp2186
(g29
F1.0
tp2187
a(g31
F66.66666666666667
tp2188
a(g33
L0L
tp2189
asg11
(lp2190
sg14
(lp2191
(g37
I00
tp2192
a(g39
Ntp2193
a(g41
Ntp2194
asg43
(lp2195
(g45
g46
(F0.0
F0.0
tp2196
Rp2197
tp2198
a(g50
F0.47028318401783975
tp2199
a(g52
g46
(F267.7990885871163
F125.42871074065465
tp2200
Rp2201
tp2202
a(g56
g46
(F0.0
F0.0
tp2203
Rp2204
tp2205
a(g60
g46
(F170.43093609519602
F115.09261091032536
tp2206
Rp2207
tp2208
a(g64
F-0.41425482839325145
tp2209
a(g66
F0.0
tp2210
asbtp2211
a(g69
(lp2212
g46
(F-10.0
F-10.0
tp2213
Rp2214
ag46
(F10.0
F-10.0
tp2215
Rp2216
ag46
(F10.0
F10.0
tp2217
Rp2218
ag46
(F-10.0
F10.0
tp2219
Rp2220
atp2221
ag81
a(g82
F0.0
tp2222
asg11
(lp2223
sg14
(lp2224
sg43
(lp2225
(g87
I0
tp2226
a(g89
L0L
tp2227
a(g91
g1
(g92
g93
(L0L
L4294967295L
L4294967295L
tp2228
tp2229
Rp2230
tp2231
a(g98
F0.0
tp2232
a(g100
F1.0
tp2233
a(g102
g46
(F0.0
F0.0
tp2234
Rp2235
tp2236
a(g87
I0
tp2237
a(g89
L0L
tp2238
a(g91
g1
(g92
g93
(L0L
L4294967295L
L4294967295L
tp2239
tp2240
Rp2241
tp2242
a(g98
F0.0
tp2243
a(g100
F1.0
tp2244
a(g102
g46
(F0.0
F0.0
tp2245
Rp2246
tp2247
a(g29
F1.0
tp2248
a(g118
F0.0025
tp2249
asbag1
(g18
g3
Ntp2250
Rp2251
(dp2252
g7
(lp2253
(g23
g1
(g24
g3
Ntp2254
Rp2255
(dp2256
g7
(lp2257
(g29
F1.0
tp2258
a(g31
F66.66666666666667
tp2259
a(g33
L0L
tp2260
asg11
(lp2261
sg14
(lp2262
(g37
I00
tp2263
a(g39
Ntp2264
a(g41
Ntp2265
asg43
(lp2266
(g45
g46
(F0.0
F0.0
tp2267
Rp2268
tp2269
a(g50
F0.22975015502252807
tp2270
a(g52
g46
(F238.76976138239095
F92.21143243022266
tp2271
Rp2272
tp2273
a(g56
g46
(F0.0
F0.0
tp2274
Rp2275
tp2276
a(g60
g46
(F64.56531853273434
F119.47398275074748
tp2277
Rp2278
tp2279
a(g64
F-0.7786448152866863
tp2280
a(g66
F0.0
tp2281
asbtp2282
a(g69
(lp2283
g46
(F-10.0
F-10.0
tp2284
Rp2285
ag46
(F10.0
F-10.0
tp2286
Rp2287
ag46
(F10.0
F10.0
tp2288
Rp2289
ag46
(F-10.0
F10.0
tp2290
Rp2291
atp2292
ag81
a(g82
F0.0
tp2293
asg11
(lp2294
sg14
(lp2295
sg43
(lp2296
(g87
I0
tp2297
a(g89
L0L
tp2298
a(g91
g1
(g92
g93
(L0L
L4294967295L
L4294967295L
tp2299
tp2300
Rp2301
tp2302
a(g98
F0.0
tp2303
a(g100
F1.0
tp2304
a(g102
g46
(F0.0
F0.0
tp2305
Rp2306
tp2307
a(g87
I0
tp2308
a(g89
L0L
tp2309
a(g91
g1
(g92
g93
(L0L
L4294967295L
L4294967295L
tp2310
tp2311
Rp2312
tp2313
a(g98
F0.0
tp2314
a(g100
F1.0
tp2315
a(g102
g46
(F0.0
F0.0
tp2316
Rp2317
tp2318
a(g29
F1.0
tp2319
a(g118
F0.0025
tp2320
asbag1
(g120
g3
Ntp2321
Rp2322
(dp2323
g7
(lp2324
(g23
g1
(g24
g3
Ntp2325
Rp2326
(dp2327
g7
(lp2328
(g29
Finf
tp2329
a(g31
Finf
tp2330
a(g33
L2L
tp2331
asg11
(lp2332
sg14
(lp2333
(g37
I00
tp2334
a(g39
Ntp2335
a(g41
Ntp2336
asg43
(lp2337
(g45
g46
(F0.0
F0.0
tp2338
Rp2339
tp2340
a(g50
F0.0
tp2341
a(g52
g46
(F0.0
F0.0
tp2342
Rp2343
tp2344
a(g56
g46
(F0.0
F0.0
tp2345
Rp2346
tp2347
a(g60
g46
(F0.0
F0.0
tp2348
Rp2349
tp2350
a(g64
F0.0
tp2351
a(g66
F0.0
tp2352
asbtp2353
a(g154
g46
(F5.0
F295.0
tp2354
Rp2355
tp2356
a(g158
g46
(F5.0
F5.0
tp2357
Rp2358
tp2359
a(g82
F5.0
tp2360
asg11
(lp2361
sg14
(lp2362
sg43
(lp2363
(g87
I0
tp2364
a(g89
L0L
tp2365
a(g91
g1
(g92
g93
(L0L
L4294967295L
L4294967295L
tp2366
tp2367
Rp2368
tp2369
a(g98
F0.5
tp2370
a(g100
F1.0
tp2371
a(g102
g46
(F0.0
F0.0
tp2372
Rp2373
tp2374
a(g87
I0
tp2375
a(g89
L0L
tp2376
a(g91
g1
(g92
g93
(L0L
L4294967295L
L4294967295L
tp2377
tp2378
Rp2379
tp2380
a(g98
F0.5
tp2381
a(g100
F1.0
tp2382
a(g102
g46
(F0.0
F0.0
tp2383
Rp2384
tp2385
asbag1
(g18
g3
Ntp2386
Rp2387
(dp2388
g7
(lp2389
(g23
g1
(g24
g3
Ntp2390
Rp2391
(dp2392
g7
(lp2393
(g29
F1.0
tp2394
a(g31
F66.66666666666667
tp2395
a(g33
L0L
tp2396
asg11
(lp2397
sg14
(lp2398
(g37
I00
tp2399
a(g39
Ntp2400
a(g41
Ntp2401
asg43
(lp2402
(g45
g46
(F0.0
F0.0
tp2403
Rp2404
tp2405
a(g50
F-0.12607349376769802
tp2406
a(g52
g46
(F280.6840715476138
F62.72460213269182
tp2407
Rp2408
tp2409
a(g56
g46
(F0.0
F0.0
tp2410
Rp2411
tp2412
a(g60
g46
(F26.970650075744167
F76.56741566593108
tp2413
Rp2414
tp2415
a(g64
F-3.8218466279505616
tp2416
a(g66
F0.0
tp2417
asbtp2418
a(g69
(lp2419
g46
(F-10.0
F-10.0
tp2420
Rp2421
ag46
(F10.0
F-10.0
tp2422
Rp2423
ag46
(F10.0
F10.0
tp2424
Rp2425
ag46
(F-10.0
F10.0
tp2426
Rp2427
atp2428
ag81
a(g82
F0.0
tp2429
asg11
(lp2430
sg14
(lp2431
sg43
(lp2432
(g87
I0
tp2433
a(g89
L0L
tp2434
a(g91
g1
(g92
g93
(L0L
L4294967295L
L4294967295L
tp2435
tp2436
Rp2437
tp2438
a(g98
F0.0
tp2439
a(g100
F1.0
tp2440
a(g102
g46
(F0.0
F0.0
tp2441
Rp2442
tp2443
a(g87
I0
tp2444
a(g89
L0L
tp2445
a(g91
g1
(g92
g93
(L0L
L4294967295L
L4294967295L
tp2446
tp2447
Rp2448
tp2449
a(g98
F0.0
tp2450
a(g100
F1.0
tp2451
a(g102
g46
(F0.0
F0.0
tp2452
Rp2453
tp2454
a(g29
F1.0
tp2455
a(g118
F0.0025
tp2456
asbag1
(g120
g3
Ntp2457
Rp2458
(dp2459
g7
(lp2460
(g23
g2326
tp2461
a(g154
g46
(F295.0
F5.0
tp2462
Rp2463
tp2464
a(g158
g46
(F295.0
F295.0
tp2465
Rp2466
tp2467
a(g82
F5.0
tp2468
asg11
(lp2469
sg14
(lp2470
sg43
(lp2471
(g87
I0
tp2472
a(g89
L0L
tp2473
a(g91
g1
(g92
g93
(L0L
L4294967295L
L4294967295L
tp2474
tp2475
Rp2476
tp2477
a(g98
F0.5
tp2478
a(g100
F1.0
tp2479
a(g102
g46
(F0.0
F0.0
tp2480
Rp2481
tp2482
a(g87
I0
tp2483
a(g89
L0L
tp2484
a(g91
g1
(g92
g93
(L0L
L4294967295L
L4294967295L
tp2485
tp2486
Rp2487
tp2488
a(g98
F0.5
tp2489
a(g100
F1.0
tp2490
a(g102
g46
(F0.0
F0.0
tp2491
Rp2492
tp2493
asbag1
(g18
g3
Ntp2494
Rp2495
(dp2496
g7
(lp2497
(g23
g1
(g24
g3
Ntp2498
Rp2499
(dp2500
g7
(lp2501
(g29
F1.0
tp2502
a(g31
F66.66666666666667
tp2503
a(g33
L0L
tp2504
asg11
(lp2505
sg14
(lp2506
(g37
I00
tp2507
a(g39
Ntp2508
a(g41
Ntp2509
asg43
(lp2510
(g45
g46
(F0.0
F0.0
tp2511
Rp2512
tp2513
a(g50
F0.5746694483043115
tp2514
a(g52
g46
(F194.6600708095448
F148.90747852244567
tp2515
Rp2516
tp2517
a(g56
g46
(F0.0
F0.0
tp2518
Rp2519
tp2520
a(g60
g46
(F-58.41853758944408
F155.24517940684913
tp2521
Rp2522
tp2523
a(g64
F4.358534673987356
tp2524
a(g66
F0.0
tp2525
asbtp2526
a(g69
(lp2527
g46
(F-10.0
F-10.0
tp2528
Rp2529
ag46
(F10.0
F-10.0
tp2530
Rp2531
ag46
(F10.0
F10.0
tp2532
Rp2533
ag46
(F-10.0
F10.0
tp2534
Rp2535
atp2536
ag81
a(g82
F0.0
tp2537
asg11
(lp2538
sg14
(lp2539
sg43
(lp2540
(g87
I0
tp2541
a(g89
L0L
tp2542
a(g91
g1
(g92
g93
(L0L
L4294967295L
L4294967295L
tp2543
tp2544
Rp2545
tp2546
a(g98
F0.0
tp2547
a(g100
F1.0
tp2548
a(g102
g46
(F0.0
F0.0
tp2549
Rp2550
tp2551
a(g87
I0
tp2552
a(g89
L0L
tp2553
a(g91
g1
(g92
g93
(L0L
L4294967295L
L4294967295L
tp2554
tp2555
Rp2556
tp2557
a(g98
F0.0
tp2558
a(g100
F1.0
tp2559
a(g102
g46
(F0.0
F0.0
tp2560
Rp2561
tp2562
a(g29
F1.0
tp2563
a(g118
F0.0025
tp2564
asbag1
(g18
g3
Ntp2565
Rp2566
(dp2567
g7
(lp2568
(g23
g1
(g24
g3
Ntp2569
Rp2570
(dp2571
g7
(lp2572
(g29
F1.0
tp2573
a(g31
F66.66666666666667
tp2574
a(g33
L0L
tp2575
asg11
(lp2576
sg14
(lp2577
(g37
I00
tp2578
a(g39
Ntp2579
a(g41
Ntp2580
asg43
(lp2581
(g45
g46
(F0.0
F0.0
tp2582
Rp2583
tp2584
a(g50
F0.19195803976140177
tp2585
a(g52
g46
(F276.0653528544
F105.61101563732547
tp2586
Rp2587
tp2588
a(g56
g46
(F0.0
F0.0
tp2589
Rp2590
tp2591
a(g60
g46
(F192.16455457759264
F45.79011220946296
tp2592
Rp2593
tp2594
a(g64
F-1.002230968289659
tp2595
a(g66
F0.0
tp2596
asbtp2597
a(g69
(lp2598
g46
(F-10.0
F-10.0
tp2599
Rp2600
ag46
(F10.0
F-10.0
tp2601
Rp2602
ag46
(F10.0
F10.0
tp2603
Rp2604
ag46
(F-10.0
F10.0
tp2605
Rp2606
atp2607
ag81
a(g82
F0.0
tp2608
asg11
(lp2609
sg14
(lp2610
sg43
(lp2611
(g87
I0
tp2612
a(g89
L0L
tp2613
a(g91
g1
(g92
g93
(L0L
L4294967295L
L4294967295L
tp2614
tp2615
Rp2616
tp2617
a(g98
F0.0
tp2618
a(g100
F1.0
tp2619
a(g102
g46
(F0.0
F0.0
tp2620
Rp2621
tp2622
a(g87
I0
tp2623
a(g89
L0L
tp2624
a(g91
g1
(g92
g93
(L0L
L4294967295L
L4294967295L
tp2625
tp2626
Rp2627
tp2628
a(g98
F0.0
tp2629
a(g100
F1.0
tp2630
a(g102
g46
(F0.0
F0.0
tp2631
Rp2632
tp2633
a(g29
F1.0
tp2634
a(g118
F0.0025
tp2635
asbag1
(g18
g3
Ntp2636
Rp2637
(dp2638
g7
(lp2639
(g23
g1
(g24
g3
Ntp2640
Rp2641
(dp2642
g7
(lp2643
(g29
F1.0
tp2644
a(g31
F66.66666666666667
tp2645
a(g33
L0L
tp2646
asg11
(lp2647
sg14
(lp2648
(g37
I00
tp2649
a(g39
Ntp2650
a(g41
Ntp2651
asg43
(lp2652
(g45
g46
(F0.0
F0.0
tp2653
Rp2654
tp2655
a(g50
F-0.05771962176677606
tp2656
a(g52
g46
(F262.7939273233195
F19.982426633895788
tp2657
Rp2658
tp2659
a(g56
g46
(F0.0
F0.0
tp2660
Rp2661
tp2662
a(g60
g46
(F-33.01921782467136
F19.7843252657577
tp2663
Rp2664
tp2665
a(g64
F-1.1388272638519596
tp2666
a(g66
F0.0
tp2667
asbtp2668
a(g69
(lp2669
g46
(F-10.0
F-10.0
tp2670
Rp2671
ag46
(F10.0
F-10.0
tp2672
Rp2673
ag46
(F10.0
F10.0
tp2674
Rp2675
ag46
(F-10.0
F10.0
tp2676
Rp2677
atp2678
ag81
a(g82
F0.0
tp2679
asg11
(lp2680
sg14
(lp2681
sg43
(lp2682
(g87
I0
tp2683
a(g89
L0L
tp2684
a(g91
g1
(g92
g93
(L0L
L4294967295L
L4294967295L
tp2685
tp2686
Rp2687
tp2688
a(g98
F0.0
tp2689
a(g100
F1.0
tp2690
a(g102
g46
(F0.0
F0.0
tp2691
Rp2692
tp2693
a(g87
I0
tp2694
a(g89
L0L
tp2695
a(g91
g1
(g92
g93
(L0L
L4294967295L
L4294967295L
tp2696
tp2697
Rp2698
tp2699
a(g98
F0.0
tp2700
a(g100
F1.0
tp2701
a(g102
g46
(F0.0
F0.0
tp2702
Rp2703
tp2704
a(g29
F1.0
tp2705
a(g118
F0.0025
tp2706
asbag1
(g18
g3
Ntp2707
Rp2708
(dp2709
g7
(lp2710
(g23
g1
(g24
g3
Ntp2711
Rp2712
(dp2713
g7
(lp2714
(g29
F1.0
tp2715
a(g31
F66.66666666666667
tp2716
a(g33
L0L
tp2717
asg11
(lp2718
sg14
(lp2719
(g37
I00
tp2720
a(g39
Ntp2721
a(g41
Ntp2722
asg43
(lp2723
(g45
g46
(F0.0
F0.0
tp2724
Rp2725
tp2726
a(g50
F-0.2900137000147934
tp2727
a(g52
g46
(F269.8299855047422
F41.14923581594822
tp2728
Rp2729
tp2730
a(g56
g46
(F0.0
F0.0
tp2731
Rp2732
tp2733
a(g60
g46
(F38.0378328028947
F50.209646501624626
tp2734
Rp2735
tp2736
a(g64
F-3.258926594753483
tp2737
a(g66
F0.0
tp2738
asbtp2739
a(g69
(lp2740
g46
(F-10.0
F-10.0
tp2741
Rp2742
ag46
(F10.0
F-10.0
tp2743
Rp2744
ag46
(F10.0
F10.0
tp2745
Rp2746
ag46
(F-10.0
F10.0
tp2747
Rp2748
atp2749
ag81
a(g82
F0.0
tp2750
asg11
(lp2751
sg14
(lp2752
sg43
(lp2753
(g87
I0
tp2754
a(g89
L0L
tp2755
a(g91
g1
(g92
g93
(L0L
L4294967295L
L4294967295L
tp2756
tp2757
Rp2758
tp2759
a(g98
F0.0
tp2760
a(g100
F1.0
tp2761
a(g102
g46
(F0.0
F0.0
tp2762
Rp2763
tp2764
a(g87
I0
tp2765
a(g89
L0L
tp2766
a(g91
g1
(g92
g93
(L0L
L4294967295L
L4294967295L
tp2767
tp2768
Rp2769
tp2770
a(g98
F0.0
tp2771
a(g100
F1.0
tp2772
a(g102
g46
(F0.0
F0.0
tp2773
Rp2774
tp2775
a(g29
F1.0
tp2776
a(g118
F0.0025
tp2777
asbag1
(g18
g3
Ntp2778
Rp2779
(dp2780
g7
(lp2781
(g23
g1
(g24
g3
Ntp2782
Rp2783
(dp2784
g7
(lp2785
(g29
F1.0
tp2786
a(g31
F66.66666666666667
tp2787
a(g33
L0L
tp2788
asg11
(lp2789
sg14
(lp2790
(g37
I00
tp2791
a(g39
Ntp2792
a(g41
Ntp2793
asg43
(lp2794
(g45
g46
(F0.0
F0.0
tp2795
Rp2796
tp2797
a(g50
F-0.2301118722317182
tp2798
a(g52
g46
(F255.48141550523894
F55.29372646581549
tp2799
Rp2800
tp2801
a(g56
g46
(F0.0
F0.0
tp2802
Rp2803
tp2804
a(g60
g46
(F64.10346418260048
F78.96934330020429
tp2805
Rp2806
tp2807
a(g64
F-1.3408839414539617
tp2808
a(g66
F0.0
tp2809
asbtp2810
a(g69
(lp2811
g46
(F-10.0
F-10.0
tp2812
Rp2813
ag46
(F10.0
F-10.0
tp2814
Rp2815
ag46
(F10.0
F10.0
tp2816
Rp2817
ag46
(F-10.0
F10.0
tp2818
Rp2819
atp2820
ag81
a(g82
F0.0
tp2821
asg11
(lp2822
sg14
(lp2823
sg43
(lp2824
(g87
I0
tp2825
a(g89
L0L
tp2826
a(g91
g1
(g92
g93
(L0L
L4294967295L
L4294967295L
tp2827
tp2828
Rp2829
tp2830
a(g98
F0.0
tp2831
a(g100
F1.0
tp2832
a(g102
g46
(F0.0
F0.0
tp2833
Rp2834
tp2835
a(g87
I0
tp2836
a(g89
L0L
tp2837
a(g91
g1
(g92
g93
(L0L
L4294967295L
L4294967295L
tp2838
tp2839
Rp2840
tp2841
a(g98
F0.0
tp2842
a(g100
F1.0
tp2843
a(g102
g46
(F0.0
F0.0
tp2844
Rp2845
tp2846
a(g29
F1.0
tp2847
a(g118
F0.0025
tp2848
asbag1
(g18
g3
Ntp2849
Rp2850
(dp2851
g7
(lp2852
(g23
g1
(g24
g3
Ntp2853
Rp2854
(dp2855
g7
(lp2856
(g29
F1.0
tp2857
a(g31
F66.66666666666667
tp2858
a(g33
L0L
tp2859
asg11
(lp2860
sg14
(lp2861
(g37
I00
tp2862
a(g39
Ntp2863
a(g41
Ntp2864
asg43
(lp2865
(g45
g46
(F0.0
F0.0
tp2866
Rp2867
tp2868
a(g50
F0.8295685195098874
tp2869
a(g52
g46
(F215.14843315614507
F128.42948054142644
tp2870
Rp2871
tp2872
a(g56
g46
(F0.0
F0.0
tp2873
Rp2874
tp2875
a(g60
g46
(F108.24535525798558
F170.8311436747112
tp2876
Rp2877
tp2878
a(g64
F3.982607233470924
tp2879
a(g66
F0.0
tp2880
asbtp2881
a(g69
(lp2882
g46
(F-10.0
F-10.0
tp2883
Rp2884
ag46
(F10.0
F-10.0
tp2885
Rp2886
ag46
(F10.0
F10.0
tp2887
Rp2888
ag46
(F-10.0
F10.0
tp2889
Rp2890
atp2891
ag81
a(g82
F0.0
tp2892
asg11
(lp2893
sg14
(lp2894
sg43
(lp2895
(g87
I0
tp2896
a(g89
L0L
tp2897
a(g91
g1
(g92
g93
(L0L
L4294967295L
L4294967295L
tp2898
tp2899
Rp2900
tp2901
a(g98
F0.0
tp2902
a(g100
F1.0
tp2903
a(g102
g46
(F0.0
F0.0
tp2904
Rp2905
tp2906
a(g87
I0
tp2907
a(g89
L0L
tp2908
a(g91
g1
(g92
g93
(L0L
L4294967295L
L4294967295L
tp2909
tp2910
Rp2911
tp2912
a(g98
F0.0
tp2913
a(g100
F1.0
tp2914
a(g102
g46
(F0.0
F0.0
tp2915
Rp2916
tp2917
a(g29
F1.0
tp2918
a(g118
F0.0025
tp2919
asbag1
(g18
g3
Ntp2920
Rp2921
(dp2922
g7
(lp2923
(g23
g1
(g24
g3
Ntp2924
Rp2925
(dp2926
g7
(lp2927
(g29
F1.0
tp2928
a(g31
F66.66666666666667
tp2929
a(g33
L0L
tp2930
asg11
(lp2931
sg14
(lp2932
(g37
I00
tp2933
a(g39
Ntp2934
a(g41
Ntp2935
asg43
(lp2936
(g45
g46
(F0.0
F0.0
tp2937
Rp2938
tp2939
a(g50
F0.20247980556974554
tp2940
a(g52
g46
(F279.9373115227958
F85.42254154498535
tp2941
Rp2942
tp2943
a(g56
g46
(F0.0
F0.0
tp2944
Rp2945
tp2946
a(g60
g46
(F52.46172612705723
F49.41558310664518
tp2947
Rp2948
tp2949
a(g64
F-3.3502532078379543
tp2950
a(g66
F0.0
tp2951
asbtp2952
a(g69
(lp2953
g46
(F-10.0
F-10.0
tp2954
Rp2955
ag46
(F10.0
F-10.0
tp2956
Rp2957
ag46
(F10.0
F10.0
tp2958
Rp2959
ag46
(F-10.0
F10.0
tp2960
Rp2961
atp2962
ag81
a(g82
F0.0
tp2963
asg11
(lp2964
sg14
(lp2965
sg43
(lp2966
(g87
I0
tp2967
a(g89
L0L
tp2968
a(g91
g1
(g92
g93
(L0L
L4294967295L
L4294967295L
tp2969
tp2970
Rp2971
tp2972
a(g98
F0.0
tp2973
a(g100
F1.0
tp2974
a(g102
g46
(F0.0
F0.0
tp2975
Rp2976
tp2977
a(g87
I0
tp2978
a(g89
L0L
tp2979
a(g91
g1
(g92
g93
(L0L
L4294967295L
L4294967295L
tp2980
tp2981
Rp2982
tp2983
a(g98
F0.0
tp2984
a(g100
F1.0
tp2985
a(g102
g46
(F0.0
F0.0
tp2986
Rp2987
tp2988
a(g29
F1.0
tp2989
a(g118
F0.0025
tp2990
asbag1
(g18
g3
Ntp2991
Rp2992
(dp2993
g7
(lp2994
(g23
g1
(g24
g3
Ntp2995
Rp2996
(dp2997
g7
(lp2998
(g29
F1.0
tp2999
a(g31
F66.66666666666667
tp3000
a(g33
L0L
tp3001
asg11
(lp3002
sg14
(lp3003
(g37
I00
tp3004
a(g39
Ntp3005
a(g41
Ntp3006
asg43
(lp3007
(g45
g46
(F0.0
F0.0
tp3008
Rp3009
tp3010
a(g50
F-0.004248314697450302
tp3011
a(g52
g46
(F262.5729047839959
F72.20982915110149
tp3012
Rp3013
tp3014
a(g56
g46
(F0.0
F0.0
tp3015
Rp3016
tp3017
a(g60
g46
(F19.45980457877519
F86.36359394715308
tp3018
Rp3019
tp3020
a(g64
F0.19691857157900633
tp3021
a(g66
F0.0
tp3022
asbtp3023
a(g69
(lp3024
g46
(F-10.0
F-10.0
tp3025
Rp3026
ag46
(F10.0
F-10.0
tp3027
Rp3028
ag46
(F10.0
F10.0
tp3029
Rp3030
ag46
(F-10.0
F10.0
tp3031
Rp3032
atp3033
ag81
a(g82
F0.0
tp3034
asg11
(lp3035
sg14
(lp3036
sg43
(lp3037
(g87
I0
tp3038
a(g89
L0L
tp3039
a(g91
g1
(g92
g93
(L0L
L4294967295L
L4294967295L
tp3040
tp3041
Rp3042
tp3043
a(g98
F0.0
tp3044
a(g100
F1.0
tp3045
a(g102
g46
(F0.0
F0.0
tp3046
Rp3047
tp3048
a(g87
I0
tp3049
a(g89
L0L
tp3050
a(g91
g1
(g92
g93
(L0L
L4294967295L
L4294967295L
tp3051
tp3052
Rp3053
tp3054
a(g98
F0.0
tp3055
a(g100
F1.0
tp3056
a(g102
g46
(F0.0
F0.0
tp3057
Rp3058
tp3059
a(g29
F1.0
tp3060
a(g118
F0.0025
tp3061
asbag1
(g18
g3
Ntp3062
Rp3063
(dp3064
g7
(lp3065
(g23
g1
(g24
g3
Ntp3066
Rp3067
(dp3068
g7
(lp3069
(g29
F1.0
tp3070
a(g31
F66.66666666666667
tp3071
a(g33
L0L
tp3072
asg11
(lp3073
sg14
(lp3074
(g37
I00
tp3075
a(g39
Ntp3076
a(g41
Ntp3077
asg43
(lp3078
(g45
g46
(F0.0
F0.0
tp3079
Rp3080
tp3081
a(g50
F0.42438606900214754
tp3082
a(g52
g46
(F251.28352664396255
F116.51433214345914
tp3083
Rp3084
tp3085
a(g56
g46
(F0.0
F0.0
tp3086
Rp3087
tp3088
a(g60
g46
(F156.84334048145345
F126.11492710671236
tp3089
Rp3090
tp3091
a(g64
F-1.1052068522603757
tp3092
a(g66
F0.0
tp3093
asbtp3094
a(g69
(lp3095
g46
(F-10.0
F-10.0
tp3096
Rp3097
ag46
(F10.0
F-10.0
tp3098
Rp3099
ag46
(F10.0
F10.0
tp3100
Rp3101
ag46
(F-10.0
F10.0
tp3102
Rp3103
atp3104
ag81
a(g82
F0.0
tp3105
asg11
(lp3106
sg14
(lp3107
sg43
(lp3108
(g87
I0
tp3109
a(g89
L0L
tp3110
a(g91
g1
(g92
g93
(L0L
L4294967295L
L4294967295L
tp3111
tp3112
Rp3113
tp3114
a(g98
F0.0
tp3115
a(g100
F1.0
tp3116
a(g102
g46
(F0.0
F0.0
tp3117
Rp3118
tp3119
a(g87
I0
tp3120
a(g89
L0L
tp3121
a(g91
g1
(g92
g93
(L0L
L4294967295L
L4294967295L
tp3122
tp3123
Rp3124
tp3125
a(g98
F0.0
tp3126
a(g100
F1.0
tp3127
a(g102
g46
(F0.0
F0.0
tp3128
Rp3129
tp3130
a(g29
F1.0
tp3131
a(g118
F0.0025
tp3132
asbag1
(g18
g3
Ntp3133
Rp3134
(dp3135
g7
(lp3136
(g23
g1
(g24
g3
Ntp3137
Rp3138
(dp3139
g7
(lp3140
(g29
F1.0
tp3141
a(g31
F66.66666666666667
tp3142
a(g33
L0L
tp3143
asg11
(lp3144
sg14
(lp3145
(g37
I00
tp3146
a(g39
Ntp3147
a(g41
Ntp3148
asg43
(lp3149
(g45
g46
(F0.0
F0.0
tp3150
Rp3151
tp3152
a(g50
F-0.12362142515865968
tp3153
a(g52
g46
(F284.4209158601627
F39.933445935981354
tp3154
Rp3155
tp3156
a(g56
g46
(F0.0
F0.0
tp3157
Rp3158
tp3159
a(g60
g46
(F14.526271614378231
F7.689795380532986
tp3160
Rp3161
tp3162
a(g64
F-2.224855362771022
tp3163
a(g66
F0.0
tp3164
asbtp3165
a(g69
(lp3166
g46
(F-10.0
F-10.0
tp3167
Rp3168
ag46
(F10.0
F-10.0
tp3169
Rp3170
ag46
(F10.0
F10.0
tp3171
Rp3172
ag46
(F-10.0
F10.0
tp3173
Rp3174
atp3175
ag81
a(g82
F0.0
tp3176
asg11
(lp3177
sg14
(lp3178
sg43
(lp3179
(g87
I0
tp3180
a(g89
L0L
tp3181
a(g91
g1
(g92
g93
(L0L
L4294967295L
L4294967295L
tp3182
tp3183
Rp3184
tp3185
a(g98
F0.0
tp3186
a(g100
F1.0
tp3187
a(g102
g46
(F0.0
F0.0
tp3188
Rp3189
tp3190
a(g87
I0
tp3191
a(g89
L0L
tp3192
a(g91
g1
(g92
g93
(L0L
L4294967295L
L4294967295L
tp3193
tp3194
Rp3195
tp3196
a(g98
F0.0
tp3197
a(g100
F1.0
tp3198
a(g102
g46
(F0.0
F0.0
tp3199
Rp3200
tp3201
a(g29
F1.0
tp3202
a(g118
F0.0025
tp3203
asbag1
(g120
g3
Ntp3204
Rp3205
(dp3206
g7
(lp3207
(g23
g2326
tp3208
a(g154
g46
(F295.0
F295.0
tp3209
Rp3210
tp3211
a(g158
g46
(F5.0
F295.0
tp3212
Rp3213
tp3214
a(g82
F5.0
tp3215
asg11
(lp3216
sg14
(lp3217
sg43
(lp3218
(g87
I0
tp3219
a(g89
L0L
tp3220
a(g91
g1
(g92
g93
(L0L
L4294967295L
L4294967295L
tp3221
tp3222
Rp3223
tp3224
a(g98
F0.5
tp3225
a(g100
F1.0
tp3226
a(g102
g46
(F0.0
F0.0
tp3227
Rp3228
tp3229
a(g87
I0
tp3230
a(g89
L0L
tp3231
a(g91
g1
(g92
g93
(L0L
L4294967295L
L4294967295L
tp3232
tp3233
Rp3234
tp3235
a(g98
F0.5
tp3236
a(g100
F1.0
tp3237
a(g102
g46
(F0.0
F0.0
tp3238
Rp3239
tp3240
asbag1
(g18
g3
Ntp3241
Rp3242
(dp3243
g7
(lp3244
(g23
g1
(g24
g3
Ntp3245
Rp3246
(dp3247
g7
(lp3248
(g29
F1.0
tp3249
a(g31
F66.66666666666667
tp3250
a(g33
L0L
tp3251
asg11
(lp3252
sg14
(lp3253
(g37
I00
tp3254
a(g39
Ntp3255
a(g41
Ntp3256
asg43
(lp3257
(g45
g46
(F0.0
F0.0
tp3258
Rp3259
tp3260
a(g50
F0.5936251160483467
tp3261
a(g52
g46
(F241.03374103934132
F136.3552784117851
tp3262
Rp3263
tp3264
a(g56
g46
(F0.0
F0.0
tp3265
Rp3266
tp3267
a(g60
g46
(F67.16900739400266
F73.67458856332622
tp3268
Rp3269
tp3270
a(g64
F-4.446579871982167
tp3271
a(g66
F0.0
tp3272
asbtp3273
a(g69
(lp3274
g46
(F-10.0
F-10.0
tp3275
Rp3276
ag46
(F10.0
F-10.0
tp3277
Rp3278
ag46
(F10.0
F10.0
tp3279
Rp3280
ag46
(F-10.0
F10.0
tp3281
Rp3282
atp3283
ag81
a(g82
F0.0
tp3284
asg11
(lp3285
sg14
(lp3286
sg43
(lp3287
(g87
I0
tp3288
a(g89
L0L
tp3289
a(g91
g1
(g92
g93
(L0L
L4294967295L
L4294967295L
tp3290
tp3291
Rp3292
tp3293
a(g98
F0.0
tp3294
a(g100
F1.0
tp3295
a(g102
g46
(F0.0
F0.0
tp3296
Rp3297
tp3298
a(g87
I0
tp3299
a(g89
L0L
tp3300
a(g91
g1
(g92
g93
(L0L
L4294967295L
L4294967295L
tp3301
tp3302
Rp3303
tp3304
a(g98
F0.0
tp3305
a(g100
F1.0
tp3306
a(g102
g46
(F0.0
F0.0
tp3307
Rp3308
tp3309
a(g29
F1.0
tp3310
a(g118
F0.0025
tp3311
asbag1
(g18
g3
Ntp3312
Rp3313
(dp3314
g7
(lp3315
(g23
g1
(g24
g3
Ntp3316
Rp3317
(dp3318
g7
(lp3319
(g29
F1.0
tp3320
a(g31
F66.66666666666667
tp3321
a(g33
L0L
tp3322
asg11
(lp3323
sg14
(lp3324
(g37
I00
tp3325
a(g39
Ntp3326
a(g41
Ntp3327
asg43
(lp3328
(g45
g46
(F0.0
F0.0
tp3329
Rp3330
tp3331
a(g50
F0.5658760937695255
tp3332
a(g52
g46
(F229.93176000145553
F113.75013695565556
tp3333
Rp3334
tp3335
a(g56
g46
(F0.0
F0.0
tp3336
Rp3337
tp3338
a(g60
g46
(F153.8237144814185
F157.52495586893642
tp3339
Rp3340
tp3341
a(g64
F-1.555828710242188
tp3342
a(g66
F0.0
tp3343
asbtp3344
a(g69
(lp3345
g46
(F-10.0
F-10.0
tp3346
Rp3347
ag46
(F10.0
F-10.0
tp3348
Rp3349
ag46
(F10.0
F10.0
tp3350
Rp3351
ag46
(F-10.0
F10.0
tp3352
Rp3353
atp3354
ag81
a(g82
F0.0
tp3355
asg11
(lp3356
sg14
(lp3357
sg43
(lp3358
(g87
I0
tp3359
a(g89
L0L
tp3360
a(g91
g1
(g92
g93
(L0L
L4294967295L
L4294967295L
tp3361
tp3362
Rp3363
tp3364
a(g98
F0.0
tp3365
a(g100
F1.0
tp3366
a(g102
g46
(F0.0
F0.0
tp3367
Rp3368
tp3369
a(g87
I0
tp3370
a(g89
L0L
tp3371
a(g91
g1
(g92
g93
(L0L
L4294967295L
L4294967295L
tp3372
tp3373
Rp3374
tp3375
a(g98
F0.0
tp3376
a(g100
F1.0
tp3377
a(g102
g46
(F0.0
F0.0
tp3378
Rp3379
tp3380
a(g29
F1.0
tp3381
a(g118
F0.0025
tp3382
asbag1
(g120
g3
Ntp3383
Rp3384
(dp3385
g7
(lp3386
(g23
g2326
tp3387
a(g154
g46
(F5.0
F5.0
tp3388
Rp3389
tp3390
a(g158
g46
(F295.0
F5.0
tp3391
Rp3392
tp3393
a(g82
F5.0
tp3394
asg11
(lp3395
sg14
(lp3396
sg43
(lp3397
(g87
I0
tp3398
a(g89
L0L
tp3399
a(g91
g1
(g92
g93
(L0L
L4294967295L
L4294967295L
tp3400
tp3401
Rp3402
tp3403
a(g98
F0.5
tp3404
a(g100
F1.0
tp3405
a(g102
g46
(F0.0
F0.0
tp3406
Rp3407
tp3408
a(g87
I0
tp3409
a(g89
L0L
tp3410
a(g91
g1
(g92
g93
(L0L
L4294967295L
L4294967295L
tp3411
tp3412
Rp3413
tp3414
a(g98
F0.5
tp3415
a(g100
F1.0
tp3416
a(g102
g46
(F0.0
F0.0
tp3417
Rp3418
tp3419
asbag1
(g18
g3
Ntp3420
Rp3421
(dp3422
g7
(lp3423
(g23
g1
(g24
g3
Ntp3424
Rp3425
(dp3426
g7
(lp3427
(g29
F1.0
tp3428
a(g31
F66.66666666666667
tp3429
a(g33
L0L
tp3430
asg11
(lp3431
sg14
(lp3432
(g37
I00
tp3433
a(g39
Ntp3434
a(g41
Ntp3435
asg43
(lp3436
(g45
g46
(F0.0
F0.0
tp3437
Rp3438
tp3439
a(g50
F0.2577020058850358
tp3440
a(g52
g46
(F257.64255259571365
F96.07231320670597
tp3441
Rp3442
tp3443
a(g56
g46
(F0.0
F0.0
tp3444
Rp3445
tp3446
a(g60
g46
(F67.85233384649536
F103.37683298485823
tp3447
Rp3448
tp3449
a(g64
F-0.9455879969972896
tp3450
a(g66
F0.0
tp3451
asbtp3452
a(g69
(lp3453
g46
(F-10.0
F-10.0
tp3454
Rp3455
ag46
(F10.0
F-10.0
tp3456
Rp3457
ag46
(F10.0
F10.0
tp3458
Rp3459
ag46
(F-10.0
F10.0
tp3460
Rp3461
atp3462
ag81
a(g82
F0.0
tp3463
asg11
(lp3464
sg14
(lp3465
sg43
(lp3466
(g87
I0
tp3467
a(g89
L0L
tp3468
a(g91
g1
(g92
g93
(L0L
L4294967295L
L4294967295L
tp3469
tp3470
Rp3471
tp3472
a(g98
F0.0
tp3473
a(g100
F1.0
tp3474
a(g102
g46
(F0.0
F0.0
tp3475
Rp3476
tp3477
a(g87
I0
tp3478
a(g89
L0L
tp3479
a(g91
g1
(g92
g93
(L0L
L4294967295L
L4294967295L
tp3480
tp3481
Rp3482
tp3483
a(g98
F0.0
tp3484
a(g100
F1.0
tp3485
a(g102
g46
(F0.0
F0.0
tp3486
Rp3487
tp3488
a(g29
F1.0
tp3489
a(g118
F0.0025
tp3490
asbag1
(g18
g3
Ntp3491
Rp3492
(dp3493
g7
(lp3494
(g23
g1
(g24
g3
Ntp3495
Rp3496
(dp3497
g7
(lp3498
(g29
F1.0
tp3499
a(g31
F66.66666666666667
tp3500
a(g33
L0L
tp3501
asg11
(lp3502
sg14
(lp3503
(g37
I00
tp3504
a(g39
Ntp3505
a(g41
Ntp3506
asg43
(lp3507
(g45
g46
(F0.0
F0.0
tp3508
Rp3509
tp3510
a(g50
F0.5839661814769519
tp3511
a(g52
g46
(F230.31897469102495
F155.70196026598796
tp3512
Rp3513
tp3514
a(g56
g46
(F0.0
F0.0
tp3515
Rp3516
tp3517
a(g60
g46
(F-15.17558338457565
F110.89950541337089
tp3518
Rp3519
tp3520
a(g64
F5.765542107784684
tp3521
a(g66
F0.0
tp3522
asbtp3523
a(g69
(lp3524
g46
(F-10.0
F-10.0
tp3525
Rp3526
ag46
(F10.0
F-10.0
tp3527
Rp3528
ag46
(F10.0
F10.0
tp3529
Rp3530
ag46
(F-10.0
F10.0
tp3531
Rp3532
atp3533
ag81
a(g82
F0.0
tp3534
asg11
(lp3535
sg14
(lp3536
sg43
(lp3537
(g87
I0
tp3538
a(g89
L0L
tp3539
a(g91
g1
(g92
g93
(L0L
L4294967295L
L4294967295L
tp3540
tp3541
Rp3542
tp3543
a(g98
F0.0
tp3544
a(g100
F1.0
tp3545
a(g102
g46
(F0.0
F0.0
tp3546
Rp3547
tp3548
a(g87
I0
tp3549
a(g89
L0L
tp3550
a(g91
g1
(g92
g93
(L0L
L4294967295L
L4294967295L
tp3551
tp3552
Rp3553
tp3554
a(g98
F0.0
tp3555
a(g100
F1.0
tp3556
a(g102
g46
(F0.0
F0.0
tp3557
Rp3558
tp3559
a(g29
F1.0
tp3560
a(g118
F0.0025
tp3561
asbatp3562
a(g1789
(lp3563
g1971
ag2783
ag3067
ag2391
ag2499
ag2113
ag2996
ag2570
ag3138
ag3317
ag1835
ag2712
ag3425
ag2641
ag2255
ag3496
ag2184
ag1906
ag3246
ag2042
ag2925
ag2854
atp3564
a(g1792
(lp3565
tp3566
a(g1795
g2326
tp3567
a(g1797
(lp3568
tp3569
asg43
(lp3570
(g1801
I10
tp3571
a(g1803
g46
(F0.0
F-1000.0
tp3572
Rp3573
tp3574
a(g1807
F1.0
tp3575
a(g1809
F0.0
tp3576
a(g1811
Finf
tp3577
a(g1813
F0.10000000149011612
tp3578
a(g1815
F0.0017970074436457143
tp3579
a(g1817
L3L
tp3580
a(g1819
I1
tp3581
asba.